; generated by Component: ARM Compiler 5.06 update 5 (build 528) Tool: ArmCC [4d3621]
; commandline ArmCC [--list --split_sections --debug -c --asm --interleave -o..\obj\savefuel.o --asm_dir=.\Listings\ --list_dir=.\Listings\ --depend=..\obj\savefuel.d --cpu=Cortex-M3 --apcs=interwork -O0 --diag_suppress=9931 -I..\OBD -I..\SYSTEM -I..\USER -I..\LIB\inc -I..\UCOSII\CONFIG -I..\UCOSII\PORT -I..\UCOSII\CORE -I..\HAEDWARE -I..\GPS -I..\CDMA -I..\DEAL -I..\USB\CONFIG -I..\USB\STM32_USB-FS-Device_Driver\inc -I.\RTE\_Project -ID:\Keil_v5\ARM\PACK\ARM\CMSIS\5.2.0\CMSIS\Include -ID:\Keil_v5\ARM\PACK\Keil\STM32F1xx_DFP\2.2.0\Device\Include -D__MICROLIB -D__UVISION_VERSION=524 -D_RTE_ -DSTM32F10X_HD -DSTM32F10X_HD -DUSE_STDPERIPH_DRIVER --omf_browse=..\obj\savefuel.crf ..\OBD\saveFuel.c]
                          THUMB

                          AREA ||i.CanErrDetec||, CODE, READONLY, ALIGN=2

                  CanErrDetec PROC
;;;106    ======================================================================================*/
;;;107    u8 CanErrDetec(u16 ErrDebT,u8 Signal)
000000  4602              MOV      r2,r0
;;;108    {
;;;109       static u16 CanErrCnt = 150;
;;;110        
;;;111       if(CanErrCnt < 65530)CanErrCnt++;
000002  4818              LDR      r0,|L1.100|
000004  8800              LDRH     r0,[r0,#0]  ; CanErrCnt
000006  f64f73fa          MOV      r3,#0xfffa
00000a  4298              CMP      r0,r3
00000c  da04              BGE      |L1.24|
00000e  4815              LDR      r0,|L1.100|
000010  8800              LDRH     r0,[r0,#0]  ; CanErrCnt
000012  1c40              ADDS     r0,r0,#1
000014  4b13              LDR      r3,|L1.100|
000016  8018              STRH     r0,[r3,#0]
                  |L1.24|
;;;112       if(Signal==1 && CANr1==1 && CANr2==1 && CANr3==1 && CANr4==1 && CANr5==1 && CANr6==1){
000018  2901              CMP      r1,#1
00001a  d11a              BNE      |L1.82|
00001c  4812              LDR      r0,|L1.104|
00001e  7800              LDRB     r0,[r0,#0]  ; CANr1
000020  2801              CMP      r0,#1
000022  d116              BNE      |L1.82|
000024  4811              LDR      r0,|L1.108|
000026  7800              LDRB     r0,[r0,#0]  ; CANr2
000028  2801              CMP      r0,#1
00002a  d112              BNE      |L1.82|
00002c  4810              LDR      r0,|L1.112|
00002e  7800              LDRB     r0,[r0,#0]  ; CANr3
000030  2801              CMP      r0,#1
000032  d10e              BNE      |L1.82|
000034  480f              LDR      r0,|L1.116|
000036  7800              LDRB     r0,[r0,#0]  ; CANr4
000038  2801              CMP      r0,#1
00003a  d10a              BNE      |L1.82|
00003c  480e              LDR      r0,|L1.120|
00003e  7800              LDRB     r0,[r0,#0]  ; CANr5
000040  2801              CMP      r0,#1
000042  d106              BNE      |L1.82|
000044  480d              LDR      r0,|L1.124|
000046  7800              LDRB     r0,[r0,#0]  ; CANr6
000048  2801              CMP      r0,#1
00004a  d102              BNE      |L1.82|
;;;113         CanErrCnt = 0; 
00004c  2000              MOVS     r0,#0
00004e  4b05              LDR      r3,|L1.100|
000050  8018              STRH     r0,[r3,#0]
                  |L1.82|
;;;114       }
;;;115       if(CanErrCnt >= ErrDebT)
000052  4804              LDR      r0,|L1.100|
000054  8800              LDRH     r0,[r0,#0]  ; CanErrCnt
000056  4290              CMP      r0,r2
000058  db01              BLT      |L1.94|
;;;116    	   return 0;
00005a  2000              MOVS     r0,#0
                  |L1.92|
;;;117       else 
;;;118    	   return 1;
;;;119    
;;;120    }
00005c  4770              BX       lr
                  |L1.94|
00005e  2001              MOVS     r0,#1                 ;118
000060  e7fc              B        |L1.92|
;;;121    u8 CanErrDetec7(u16 ErrDebT,u8 Signal)
                          ENDP

000062  0000              DCW      0x0000
                  |L1.100|
                          DCD      CanErrCnt
                  |L1.104|
                          DCD      CANr1
                  |L1.108|
                          DCD      CANr2
                  |L1.112|
                          DCD      CANr3
                  |L1.116|
                          DCD      CANr4
                  |L1.120|
                          DCD      CANr5
                  |L1.124|
                          DCD      CANr6

                          AREA ||i.CanErrDetec17||, CODE, READONLY, ALIGN=2

                  CanErrDetec17 PROC
;;;134    }
;;;135    u8 CanErrDetec17(u16 ErrDebT,u8 Signal)
000000  4602              MOV      r2,r0
;;;136    {
;;;137    	static u16 CanErrCnt = 150;
;;;138    
;;;139    	if(CanErrCnt < 65530)
000002  4818              LDR      r0,|L2.100|
000004  8800              LDRH     r0,[r0,#0]  ; CanErrCnt
000006  f64f73fa          MOV      r3,#0xfffa
00000a  4298              CMP      r0,r3
00000c  da04              BGE      |L2.24|
;;;140    		CanErrCnt ++;
00000e  4815              LDR      r0,|L2.100|
000010  8800              LDRH     r0,[r0,#0]  ; CanErrCnt
000012  1c40              ADDS     r0,r0,#1
000014  4b13              LDR      r3,|L2.100|
000016  8018              STRH     r0,[r3,#0]
                  |L2.24|
;;;141    	if(Signal == 1 && CANr1 == 1 && CANr2 == 1 && CANr3 == 1 && CANr4 == 1 && CANr5==1 && CANr6 == 1){
000018  2901              CMP      r1,#1
00001a  d11a              BNE      |L2.82|
00001c  4812              LDR      r0,|L2.104|
00001e  7800              LDRB     r0,[r0,#0]  ; CANr1
000020  2801              CMP      r0,#1
000022  d116              BNE      |L2.82|
000024  4811              LDR      r0,|L2.108|
000026  7800              LDRB     r0,[r0,#0]  ; CANr2
000028  2801              CMP      r0,#1
00002a  d112              BNE      |L2.82|
00002c  4810              LDR      r0,|L2.112|
00002e  7800              LDRB     r0,[r0,#0]  ; CANr3
000030  2801              CMP      r0,#1
000032  d10e              BNE      |L2.82|
000034  480f              LDR      r0,|L2.116|
000036  7800              LDRB     r0,[r0,#0]  ; CANr4
000038  2801              CMP      r0,#1
00003a  d10a              BNE      |L2.82|
00003c  480e              LDR      r0,|L2.120|
00003e  7800              LDRB     r0,[r0,#0]  ; CANr5
000040  2801              CMP      r0,#1
000042  d106              BNE      |L2.82|
000044  480d              LDR      r0,|L2.124|
000046  7800              LDRB     r0,[r0,#0]  ; CANr6
000048  2801              CMP      r0,#1
00004a  d102              BNE      |L2.82|
;;;142    		CanErrCnt = 0; 
00004c  2000              MOVS     r0,#0
00004e  4b05              LDR      r3,|L2.100|
000050  8018              STRH     r0,[r3,#0]
                  |L2.82|
;;;143    	}     
;;;144    	if(CanErrCnt >= ErrDebT)
000052  4804              LDR      r0,|L2.100|
000054  8800              LDRH     r0,[r0,#0]  ; CanErrCnt
000056  4290              CMP      r0,r2
000058  db01              BLT      |L2.94|
;;;145    		return 0;
00005a  2000              MOVS     r0,#0
                  |L2.92|
;;;146    	else 
;;;147    		return 1;
;;;148    }
00005c  4770              BX       lr
                  |L2.94|
00005e  2001              MOVS     r0,#1                 ;147
000060  e7fc              B        |L2.92|
;;;149    
                          ENDP

000062  0000              DCW      0x0000
                  |L2.100|
                          DCD      |symbol_number.42|
                  |L2.104|
                          DCD      CANr1
                  |L2.108|
                          DCD      CANr2
                  |L2.112|
                          DCD      CANr3
                  |L2.116|
                          DCD      CANr4
                  |L2.120|
                          DCD      CANr5
                  |L2.124|
                          DCD      CANr6

                          AREA ||i.CanErrDetec7||, CODE, READONLY, ALIGN=2

                  CanErrDetec7 PROC
;;;120    }
;;;121    u8 CanErrDetec7(u16 ErrDebT,u8 Signal)
000000  4602              MOV      r2,r0
;;;122    {
;;;123    	static u16 CanErrCnt = 150;
;;;124    
;;;125    	if(CanErrCnt < 65530)
000002  4818              LDR      r0,|L3.100|
000004  8800              LDRH     r0,[r0,#0]  ; CanErrCnt
000006  f64f73fa          MOV      r3,#0xfffa
00000a  4298              CMP      r0,r3
00000c  da04              BGE      |L3.24|
;;;126    		CanErrCnt++;
00000e  4815              LDR      r0,|L3.100|
000010  8800              LDRH     r0,[r0,#0]  ; CanErrCnt
000012  1c40              ADDS     r0,r0,#1
000014  4b13              LDR      r3,|L3.100|
000016  8018              STRH     r0,[r3,#0]
                  |L3.24|
;;;127    	if(Signal==1 && CANr1==1 && CANr2==1 && CANr3==1 && CANr4==1 && CANr5==1 && CANr6==1)
000018  2901              CMP      r1,#1
00001a  d11a              BNE      |L3.82|
00001c  4812              LDR      r0,|L3.104|
00001e  7800              LDRB     r0,[r0,#0]  ; CANr1
000020  2801              CMP      r0,#1
000022  d116              BNE      |L3.82|
000024  4811              LDR      r0,|L3.108|
000026  7800              LDRB     r0,[r0,#0]  ; CANr2
000028  2801              CMP      r0,#1
00002a  d112              BNE      |L3.82|
00002c  4810              LDR      r0,|L3.112|
00002e  7800              LDRB     r0,[r0,#0]  ; CANr3
000030  2801              CMP      r0,#1
000032  d10e              BNE      |L3.82|
000034  480f              LDR      r0,|L3.116|
000036  7800              LDRB     r0,[r0,#0]  ; CANr4
000038  2801              CMP      r0,#1
00003a  d10a              BNE      |L3.82|
00003c  480e              LDR      r0,|L3.120|
00003e  7800              LDRB     r0,[r0,#0]  ; CANr5
000040  2801              CMP      r0,#1
000042  d106              BNE      |L3.82|
000044  480d              LDR      r0,|L3.124|
000046  7800              LDRB     r0,[r0,#0]  ; CANr6
000048  2801              CMP      r0,#1
00004a  d102              BNE      |L3.82|
;;;128    		CanErrCnt = 0;
00004c  2000              MOVS     r0,#0
00004e  4b05              LDR      r3,|L3.100|
000050  8018              STRH     r0,[r3,#0]
                  |L3.82|
;;;129    	     
;;;130    	if(CanErrCnt >= ErrDebT)
000052  4804              LDR      r0,|L3.100|
000054  8800              LDRH     r0,[r0,#0]  ; CanErrCnt
000056  4290              CMP      r0,r2
000058  db01              BLT      |L3.94|
;;;131    		return 0;
00005a  2000              MOVS     r0,#0
                  |L3.92|
;;;132    	else 
;;;133    		return 1;
;;;134    }
00005c  4770              BX       lr
                  |L3.94|
00005e  2001              MOVS     r0,#1                 ;133
000060  e7fc              B        |L3.92|
;;;135    u8 CanErrDetec17(u16 ErrDebT,u8 Signal)
                          ENDP

000062  0000              DCW      0x0000
                  |L3.100|
                          DCD      |symbol_number.41|
                  |L3.104|
                          DCD      CANr1
                  |L3.108|
                          DCD      CANr2
                  |L3.112|
                          DCD      CANr3
                  |L3.116|
                          DCD      CANr4
                  |L3.120|
                          DCD      CANr5
                  |L3.124|
                          DCD      CANr6

                          AREA ||i.CoEng_rloadCal||, CODE, READONLY, ALIGN=2

                  CoEng_rloadCal PROC
;;;415    
;;;416    void CoEng_rloadCal(void)  //100ms   平均负荷率计算, 平均转速计算, 平均油门计算, 100ms * 200 = 20s
000000  b510              PUSH     {r4,lr}
;;;417    {
;;;418        static u8  i, j;  
;;;419    //----------------------------------------------------------------------------------------   
;;;420    	for(i=0;i<199;i++)
000002  2000              MOVS     r0,#0
000004  4977              LDR      r1,|L4.484|
000006  7008              STRB     r0,[r1,#0]
000008  e00c              B        |L4.36|
                  |L4.10|
;;;421    	{
;;;422    		CoEng_rtrqInr100ms[i]=CoEng_rtrqInr100ms[i+1];
00000a  4977              LDR      r1,|L4.488|
00000c  4875              LDR      r0,|L4.484|
00000e  7800              LDRB     r0,[r0,#0]  ; i
000010  1c40              ADDS     r0,r0,#1
000012  5c08              LDRB     r0,[r1,r0]
000014  4a73              LDR      r2,|L4.484|
000016  7812              LDRB     r2,[r2,#0]  ; i
000018  5488              STRB     r0,[r1,r2]
00001a  4872              LDR      r0,|L4.484|
00001c  7800              LDRB     r0,[r0,#0]            ;420  ; i
00001e  1c40              ADDS     r0,r0,#1              ;420
000020  4970              LDR      r1,|L4.484|
000022  7008              STRB     r0,[r1,#0]            ;420
                  |L4.36|
000024  486f              LDR      r0,|L4.484|
000026  7800              LDRB     r0,[r0,#0]            ;420  ; i
000028  28c7              CMP      r0,#0xc7              ;420
00002a  dbee              BLT      |L4.10|
;;;423    	}
;;;424    	CoEng_rtrqInr100ms[199] = Curr_trq;    //当前扭矩            
00002c  486f              LDR      r0,|L4.492|
00002e  7800              LDRB     r0,[r0,#0]  ; Curr_trq
000030  496d              LDR      r1,|L4.488|
000032  f88100c7          STRB     r0,[r1,#0xc7]
;;;425    	Coeng_rtrqInrSum = 0;
000036  2000              MOVS     r0,#0
000038  496d              LDR      r1,|L4.496|
00003a  6008              STR      r0,[r1,#0]  ; Coeng_rtrqInrSum
;;;426    	for(j=0;j<200;j++)
00003c  496d              LDR      r1,|L4.500|
00003e  7008              STRB     r0,[r1,#0]
000040  e00d              B        |L4.94|
                  |L4.66|
;;;427    	{
;;;428    		Coeng_rtrqInrSum = Coeng_rtrqInrSum+CoEng_rtrqInr100ms[j];
000042  4869              LDR      r0,|L4.488|
000044  496b              LDR      r1,|L4.500|
000046  7809              LDRB     r1,[r1,#0]  ; j
000048  5c40              LDRB     r0,[r0,r1]
00004a  4969              LDR      r1,|L4.496|
00004c  6809              LDR      r1,[r1,#0]  ; Coeng_rtrqInrSum
00004e  4408              ADD      r0,r0,r1
000050  4967              LDR      r1,|L4.496|
000052  6008              STR      r0,[r1,#0]  ; Coeng_rtrqInrSum
000054  4867              LDR      r0,|L4.500|
000056  7800              LDRB     r0,[r0,#0]            ;426  ; j
000058  1c40              ADDS     r0,r0,#1              ;426
00005a  4966              LDR      r1,|L4.500|
00005c  7008              STRB     r0,[r1,#0]            ;426
                  |L4.94|
00005e  4865              LDR      r0,|L4.500|
000060  7800              LDRB     r0,[r0,#0]            ;426  ; j
000062  28c8              CMP      r0,#0xc8              ;426
000064  dbed              BLT      |L4.66|
;;;429    	}
;;;430    	CoEng_rtrqInrAvg = Coeng_rtrqInrSum / 200;  // 20s 平均负荷计算%
000066  4862              LDR      r0,|L4.496|
000068  6800              LDR      r0,[r0,#0]  ; Coeng_rtrqInrSum
00006a  21c8              MOVS     r1,#0xc8
00006c  fb90f0f1          SDIV     r0,r0,r1
000070  4961              LDR      r1,|L4.504|
000072  6008              STR      r0,[r1,#0]  ; CoEng_rtrqInrAvg
;;;431    	
;;;432    //-----------------------------------------------------------------------------------------	
;;;433    	for(i=0;i<100;i++)
000074  2000              MOVS     r0,#0
000076  495b              LDR      r1,|L4.484|
000078  7008              STRB     r0,[r1,#0]
00007a  e00c              B        |L4.150|
                  |L4.124|
;;;434    	{
;;;435    		CoEng_rDrvLoad100ms[i] = CoEng_rDrvLoad100ms[i+1];
00007c  495f              LDR      r1,|L4.508|
00007e  4859              LDR      r0,|L4.484|
000080  7800              LDRB     r0,[r0,#0]  ; i
000082  1c40              ADDS     r0,r0,#1
000084  5c08              LDRB     r0,[r1,r0]
000086  4a57              LDR      r2,|L4.484|
000088  7812              LDRB     r2,[r2,#0]  ; i
00008a  5488              STRB     r0,[r1,r2]
00008c  4855              LDR      r0,|L4.484|
00008e  7800              LDRB     r0,[r0,#0]            ;433  ; i
000090  1c40              ADDS     r0,r0,#1              ;433
000092  4954              LDR      r1,|L4.484|
000094  7008              STRB     r0,[r1,#0]            ;433
                  |L4.150|
000096  4853              LDR      r0,|L4.484|
000098  7800              LDRB     r0,[r0,#0]            ;433  ; i
00009a  2864              CMP      r0,#0x64              ;433
00009c  dbee              BLT      |L4.124|
;;;436    	}
;;;437    	CoEng_rDrvLoad100ms[99] = CoEng_rDrvLoad;
00009e  4858              LDR      r0,|L4.512|
0000a0  7800              LDRB     r0,[r0,#0]  ; CoEng_rDrvLoad
0000a2  4956              LDR      r1,|L4.508|
0000a4  f8810063          STRB     r0,[r1,#0x63]
;;;438    	Coeng_rDrvLoadSum = 0;                                           // 10s 驾驶员平均需求扭矩  %
0000a8  2000              MOVS     r0,#0
0000aa  4956              LDR      r1,|L4.516|
0000ac  6008              STR      r0,[r1,#0]  ; Coeng_rDrvLoadSum
;;;439    	for(j = 0;j < 100;j++)
0000ae  4951              LDR      r1,|L4.500|
0000b0  7008              STRB     r0,[r1,#0]
0000b2  e00d              B        |L4.208|
                  |L4.180|
;;;440    	{
;;;441    		Coeng_rDrvLoadSum = Coeng_rDrvLoadSum + CoEng_rDrvLoad100ms[j];
0000b4  4851              LDR      r0,|L4.508|
0000b6  494f              LDR      r1,|L4.500|
0000b8  7809              LDRB     r1,[r1,#0]  ; j
0000ba  5c40              LDRB     r0,[r0,r1]
0000bc  4951              LDR      r1,|L4.516|
0000be  6809              LDR      r1,[r1,#0]  ; Coeng_rDrvLoadSum
0000c0  4408              ADD      r0,r0,r1
0000c2  4950              LDR      r1,|L4.516|
0000c4  6008              STR      r0,[r1,#0]  ; Coeng_rDrvLoadSum
0000c6  484b              LDR      r0,|L4.500|
0000c8  7800              LDRB     r0,[r0,#0]            ;439  ; j
0000ca  1c40              ADDS     r0,r0,#1              ;439
0000cc  4949              LDR      r1,|L4.500|
0000ce  7008              STRB     r0,[r1,#0]            ;439
                  |L4.208|
0000d0  4848              LDR      r0,|L4.500|
0000d2  7800              LDRB     r0,[r0,#0]            ;439  ; j
0000d4  2864              CMP      r0,#0x64              ;439
0000d6  dbed              BLT      |L4.180|
;;;442    	}
;;;443    	CoEng_rDrv10Load = Coeng_rDrvLoadSum / 100;	
0000d8  484a              LDR      r0,|L4.516|
0000da  6800              LDR      r0,[r0,#0]  ; Coeng_rDrvLoadSum
0000dc  2164              MOVS     r1,#0x64
0000de  fb90f4f1          SDIV     r4,r0,r1
0000e2  4620              MOV      r0,r4
0000e4  f7fffffe          BL       __aeabi_i2f
0000e8  4947              LDR      r1,|L4.520|
0000ea  6008              STR      r0,[r1,#0]  ; CoEng_rDrv10Load
;;;444    	
;;;445    //------------------------------------------------------------------------------------------	
;;;446    	for(i=0;i<199;i++)
0000ec  2000              MOVS     r0,#0
0000ee  493d              LDR      r1,|L4.484|
0000f0  7008              STRB     r0,[r1,#0]
0000f2  e00e              B        |L4.274|
                  |L4.244|
;;;447    	{
;;;448    		Eng_nAvg100ms[i]=Eng_nAvg100ms[i+1];
0000f4  4945              LDR      r1,|L4.524|
0000f6  483b              LDR      r0,|L4.484|
0000f8  7800              LDRB     r0,[r0,#0]  ; i
0000fa  1c40              ADDS     r0,r0,#1
0000fc  f8510020          LDR      r0,[r1,r0,LSL #2]
000100  4a38              LDR      r2,|L4.484|
000102  7812              LDRB     r2,[r2,#0]  ; i
000104  f8410022          STR      r0,[r1,r2,LSL #2]
000108  4836              LDR      r0,|L4.484|
00010a  7800              LDRB     r0,[r0,#0]            ;446  ; i
00010c  1c40              ADDS     r0,r0,#1              ;446
00010e  4935              LDR      r1,|L4.484|
000110  7008              STRB     r0,[r1,#0]            ;446
                  |L4.274|
000112  4834              LDR      r0,|L4.484|
000114  7800              LDRB     r0,[r0,#0]            ;446  ; i
000116  28c7              CMP      r0,#0xc7              ;446
000118  dbec              BLT      |L4.244|
;;;449    	}
;;;450    	Eng_nAvg100ms[199]=Eng_nAvg;
00011a  483d              LDR      r0,|L4.528|
00011c  6800              LDR      r0,[r0,#0]  ; Eng_nAvg
00011e  f7fffffe          BL       __aeabi_f2iz
000122  493a              LDR      r1,|L4.524|
000124  f8c1031c          STR      r0,[r1,#0x31c]  ; Eng_nAvg100ms
;;;451    	Eng_nAvgSum=0;
000128  2000              MOVS     r0,#0
00012a  493a              LDR      r1,|L4.532|
00012c  6008              STR      r0,[r1,#0]  ; Eng_nAvgSum
;;;452    	for(j=0;j<200;j++)                                            // 20s 发动机平均转速
00012e  4931              LDR      r1,|L4.500|
000130  7008              STRB     r0,[r1,#0]
000132  e00e              B        |L4.338|
                  |L4.308|
;;;453    	{
;;;454    		Eng_nAvgSum = Eng_nAvgSum+Eng_nAvg100ms[j];
000134  4835              LDR      r0,|L4.524|
000136  492f              LDR      r1,|L4.500|
000138  7809              LDRB     r1,[r1,#0]  ; j
00013a  f8500021          LDR      r0,[r0,r1,LSL #2]
00013e  4935              LDR      r1,|L4.532|
000140  6809              LDR      r1,[r1,#0]  ; Eng_nAvgSum
000142  4408              ADD      r0,r0,r1
000144  4933              LDR      r1,|L4.532|
000146  6008              STR      r0,[r1,#0]  ; Eng_nAvgSum
000148  482a              LDR      r0,|L4.500|
00014a  7800              LDRB     r0,[r0,#0]            ;452  ; j
00014c  1c40              ADDS     r0,r0,#1              ;452
00014e  4929              LDR      r1,|L4.500|
000150  7008              STRB     r0,[r1,#0]            ;452
                  |L4.338|
000152  4828              LDR      r0,|L4.500|
000154  7800              LDRB     r0,[r0,#0]            ;452  ; j
000156  28c8              CMP      r0,#0xc8              ;452
000158  dbec              BLT      |L4.308|
;;;455    	}
;;;456    	Eng_nAvg20=Eng_nAvgSum/200;
00015a  482e              LDR      r0,|L4.532|
00015c  6800              LDR      r0,[r0,#0]  ; Eng_nAvgSum
00015e  21c8              MOVS     r1,#0xc8
000160  fb90f0f1          SDIV     r0,r0,r1
000164  492c              LDR      r1,|L4.536|
000166  6008              STR      r0,[r1,#0]  ; Eng_nAvg20
;;;457    //------------------------------------------------------------------------------------------	
;;;458    	for(i=0;i<29;i++)
000168  2000              MOVS     r0,#0
00016a  491e              LDR      r1,|L4.484|
00016c  7008              STRB     r0,[r1,#0]
00016e  e00f              B        |L4.400|
                  |L4.368|
;;;459    	{
;;;460    		Accped_r100ms[i] = Accped_r100ms[i+1];
000170  492a              LDR      r1,|L4.540|
000172  481c              LDR      r0,|L4.484|
000174  7800              LDRB     r0,[r0,#0]  ; i
000176  1c40              ADDS     r0,r0,#1
000178  f8511020          LDR      r1,[r1,r0,LSL #2]
00017c  4827              LDR      r0,|L4.540|
00017e  4a19              LDR      r2,|L4.484|
000180  7812              LDRB     r2,[r2,#0]  ; i
000182  f8401022          STR      r1,[r0,r2,LSL #2]
000186  4817              LDR      r0,|L4.484|
000188  7800              LDRB     r0,[r0,#0]            ;458  ; i
00018a  1c40              ADDS     r0,r0,#1              ;458
00018c  4915              LDR      r1,|L4.484|
00018e  7008              STRB     r0,[r1,#0]            ;458
                  |L4.400|
000190  4814              LDR      r0,|L4.484|
000192  7800              LDRB     r0,[r0,#0]            ;458  ; i
000194  281d              CMP      r0,#0x1d              ;458
000196  dbeb              BLT      |L4.368|
;;;461    	}
;;;462    	Accped_r100ms[29] = Accped_rint;
000198  4821              LDR      r0,|L4.544|
00019a  6800              LDR      r0,[r0,#0]  ; Accped_rint
00019c  491f              LDR      r1,|L4.540|
00019e  6748              STR      r0,[r1,#0x74]  ; Accped_r100ms
;;;463    	Accped_rSum=0;                                                //3s平均油门踏板
0001a0  2000              MOVS     r0,#0
0001a2  4920              LDR      r1,|L4.548|
0001a4  6008              STR      r0,[r1,#0]  ; Accped_rSum
;;;464    	for(j = 0;j < 30;j ++)
0001a6  4913              LDR      r1,|L4.500|
0001a8  7008              STRB     r0,[r1,#0]
0001aa  e00e              B        |L4.458|
                  |L4.428|
;;;465    	{
;;;466    		Accped_rSum=Accped_rSum+Accped_r100ms[j];
0001ac  481b              LDR      r0,|L4.540|
0001ae  4911              LDR      r1,|L4.500|
0001b0  7809              LDRB     r1,[r1,#0]  ; j
0001b2  f8500021          LDR      r0,[r0,r1,LSL #2]
0001b6  491b              LDR      r1,|L4.548|
0001b8  6809              LDR      r1,[r1,#0]  ; Accped_rSum
0001ba  4408              ADD      r0,r0,r1
0001bc  4919              LDR      r1,|L4.548|
0001be  6008              STR      r0,[r1,#0]  ; Accped_rSum
0001c0  480c              LDR      r0,|L4.500|
0001c2  7800              LDRB     r0,[r0,#0]            ;464  ; j
0001c4  1c40              ADDS     r0,r0,#1              ;464
0001c6  490b              LDR      r1,|L4.500|
0001c8  7008              STRB     r0,[r1,#0]            ;464
                  |L4.458|
0001ca  480a              LDR      r0,|L4.500|
0001cc  7800              LDRB     r0,[r0,#0]            ;464  ; j
0001ce  281e              CMP      r0,#0x1e              ;464
0001d0  dbec              BLT      |L4.428|
;;;467    	}
;;;468    	Accped_r3s = Accped_rSum/30;
0001d2  4814              LDR      r0,|L4.548|
0001d4  6800              LDR      r0,[r0,#0]  ; Accped_rSum
0001d6  211e              MOVS     r1,#0x1e
0001d8  fb90f0f1          SDIV     r0,r0,r1
0001dc  4912              LDR      r1,|L4.552|
0001de  6008              STR      r0,[r1,#0]  ; Accped_r3s
;;;469    //------------------------------------------------------------------------------------------		
;;;470    }
0001e0  bd10              POP      {r4,pc}
;;;471    extern const uint16_t  TrqlimM[2][15];
                          ENDP

0001e2  0000              DCW      0x0000
                  |L4.484|
                          DCD      i
                  |L4.488|
                          DCD      CoEng_rtrqInr100ms
                  |L4.492|
                          DCD      Curr_trq
                  |L4.496|
                          DCD      Coeng_rtrqInrSum
                  |L4.500|
                          DCD      j
                  |L4.504|
                          DCD      CoEng_rtrqInrAvg
                  |L4.508|
                          DCD      CoEng_rDrvLoad100ms
                  |L4.512|
                          DCD      CoEng_rDrvLoad
                  |L4.516|
                          DCD      Coeng_rDrvLoadSum
                  |L4.520|
                          DCD      CoEng_rDrv10Load
                  |L4.524|
                          DCD      Eng_nAvg100ms
                  |L4.528|
                          DCD      Eng_nAvg
                  |L4.532|
                          DCD      Eng_nAvgSum
                  |L4.536|
                          DCD      Eng_nAvg20
                  |L4.540|
                          DCD      Accped_r100ms
                  |L4.544|
                          DCD      Accped_rint
                  |L4.548|
                          DCD      Accped_rSum
                  |L4.552|
                          DCD      Accped_r3s

                          AREA ||i.ConstLimitation||, CODE, READONLY, ALIGN=2

                  ConstLimitation PROC
;;;495    //稳油功能
;;;496    void ConstLimitation(void)
000000  b510              PUSH     {r4,lr}
;;;497    {
;;;498    	static u16 TimerAPPCnt0 ;
;;;499    	static u8  APP_T0;
;;;500    
;;;501    	if(TimerAPPCnt0 < 65530)
000002  4854              LDR      r0,|L5.340|
000004  8800              LDRH     r0,[r0,#0]  ; TimerAPPCnt0
000006  f64f71fa          MOV      r1,#0xfffa
00000a  4288              CMP      r0,r1
00000c  da04              BGE      |L5.24|
;;;502    		TimerAPPCnt0 ++;
00000e  4851              LDR      r0,|L5.340|
000010  8800              LDRH     r0,[r0,#0]  ; TimerAPPCnt0
000012  1c40              ADDS     r0,r0,#1
000014  494f              LDR      r1,|L5.340|
000016  8008              STRH     r0,[r1,#0]
                  |L5.24|
;;;503    	if(TimerAPPCnt0 >= 250)
000018  484e              LDR      r0,|L5.340|
00001a  8800              LDRH     r0,[r0,#0]  ; TimerAPPCnt0
00001c  28fa              CMP      r0,#0xfa
00001e  db02              BLT      |L5.38|
;;;504    		APP_T0 = 1; 
000020  2001              MOVS     r0,#1
000022  494d              LDR      r1,|L5.344|
000024  7008              STRB     r0,[r1,#0]
                  |L5.38|
;;;505    
;;;506    	rdev = 20;mrdev = -20;
000026  2014              MOVS     r0,#0x14
000028  494c              LDR      r1,|L5.348|
00002a  7008              STRB     r0,[r1,#0]
00002c  20ec              MOVS     r0,#0xec
00002e  494c              LDR      r1,|L5.352|
000030  7008              STRB     r0,[r1,#0]
;;;507    
;;;508    	App_dev = Accped_rint - Accped_r3s;  //油门开度 - 3s 的平均油门开度
000032  484c              LDR      r0,|L5.356|
000034  6800              LDR      r0,[r0,#0]  ; Accped_rint
000036  494c              LDR      r1,|L5.360|
000038  6809              LDR      r1,[r1,#0]  ; Accped_r3s
00003a  1a40              SUBS     r0,r0,r1
00003c  494b              LDR      r1,|L5.364|
00003e  6008              STR      r0,[r1,#0]  ; App_dev
;;;509    
;;;510    	if(App_rFreeze == 0) //油门开度值冻结   在冻结状态 - !0  不在冻结状态 = 0
000040  484b              LDR      r0,|L5.368|
000042  6800              LDR      r0,[r0,#0]  ; App_rFreeze
000044  2800              CMP      r0,#0
000046  d144              BNE      |L5.210|
;;;511    	{ 	
;;;512    		if((Load_stCurr == Midload || Load_stCurr == Lowload) && //设置在 中载 或者 轻载 模式下
000048  484a              LDR      r0,|L5.372|
00004a  7800              LDRB     r0,[r0,#0]  ; Load_stCurr
00004c  2802              CMP      r0,#2
00004e  d003              BEQ      |L5.88|
000050  4848              LDR      r0,|L5.372|
000052  7800              LDRB     r0,[r0,#0]  ; Load_stCurr
000054  2801              CMP      r0,#1
000056  d136              BNE      |L5.198|
                  |L5.88|
;;;513    			App_dev >= mrdev && App_dev <= rdev &&   //油门的波动范围  正负 20%
000058  4844              LDR      r0,|L5.364|
00005a  6800              LDR      r0,[r0,#0]  ; App_dev
00005c  4940              LDR      r1,|L5.352|
00005e  f9911000          LDRSB    r1,[r1,#0]  ; mrdev
000062  4288              CMP      r0,r1
000064  db2f              BLT      |L5.198|
000066  4841              LDR      r0,|L5.364|
000068  6800              LDR      r0,[r0,#0]  ; App_dev
00006a  493c              LDR      r1,|L5.348|
00006c  f9911000          LDRSB    r1,[r1,#0]  ; rdev
000070  4288              CMP      r0,r1
000072  dc28              BGT      |L5.198|
;;;514    			Eng_nAvg > 1000 && 				         //发动机转速 > 1000
000074  4940              LDR      r1,|L5.376|
000076  4841              LDR      r0,|L5.380|
000078  6800              LDR      r0,[r0,#0]  ; Eng_nAvg
00007a  f7fffffe          BL       __aeabi_cfrcmple
00007e  d222              BCS      |L5.198|
;;;515    			Accped_rint > 10 && Accped_rint < 85 &&  //油门开度   > 10%  < 85%
000080  4838              LDR      r0,|L5.356|
000082  6800              LDR      r0,[r0,#0]  ; Accped_rint
000084  280a              CMP      r0,#0xa
000086  dd1e              BLE      |L5.198|
000088  4836              LDR      r0,|L5.356|
00008a  6800              LDR      r0,[r0,#0]  ; Accped_rint
00008c  2855              CMP      r0,#0x55
00008e  da1a              BGE      |L5.198|
;;;516    		    Accped_r3s > 10)                         // 3 秒的平均开度 > 10%
000090  4835              LDR      r0,|L5.360|
000092  6800              LDR      r0,[r0,#0]  ; Accped_r3s
000094  280a              CMP      r0,#0xa
000096  dd16              BLE      |L5.198|
;;;517    		{
;;;518    			if((APP_T0 == 1)&&(CL_stOutflag == 0))   //计时保持 5 秒
000098  482f              LDR      r0,|L5.344|
00009a  7800              LDRB     r0,[r0,#0]  ; APP_T0
00009c  2801              CMP      r0,#1
00009e  d157              BNE      |L5.336|
0000a0  4837              LDR      r0,|L5.384|
0000a2  7800              LDRB     r0,[r0,#0]  ; CL_stOutflag
0000a4  2800              CMP      r0,#0
0000a6  d153              BNE      |L5.336|
;;;519    			{
;;;520    				trqmax = CoEng_rtrqInrAvg + 1; // trqmax - 稳油的扭矩限制   20s 平均负荷计算
0000a8  4836              LDR      r0,|L5.388|
0000aa  8800              LDRH     r0,[r0,#0]  ; CoEng_rtrqInrAvg
0000ac  1c40              ADDS     r0,r0,#1
0000ae  4936              LDR      r1,|L5.392|
0000b0  8008              STRH     r0,[r1,#0]
;;;521    				TimerAPP0Reset();              // 定时器复位就是清  APP_T0
0000b2  2000              MOVS     r0,#0
0000b4  4927              LDR      r1,|L5.340|
0000b6  8008              STRH     r0,[r1,#0]
0000b8  4927              LDR      r1,|L5.344|
0000ba  7008              STRB     r0,[r1,#0]
;;;522    				App_rFreeze = Accped_rint;     // 记住当前的油门开度
0000bc  4829              LDR      r0,|L5.356|
0000be  6800              LDR      r0,[r0,#0]  ; Accped_rint
0000c0  492b              LDR      r1,|L5.368|
0000c2  6008              STR      r0,[r1,#0]  ; App_rFreeze
0000c4  e044              B        |L5.336|
                  |L5.198|
;;;523    			}
;;;524    		}
;;;525    		else 
;;;526    			TimerAPP0Reset();                  //退出稳油
0000c6  2000              MOVS     r0,#0
0000c8  4922              LDR      r1,|L5.340|
0000ca  8008              STRH     r0,[r1,#0]
0000cc  4922              LDR      r1,|L5.344|
0000ce  7008              STRB     r0,[r1,#0]
0000d0  e03e              B        |L5.336|
                  |L5.210|
;;;527    	}
;;;528    	else if(Load_stCurr == Highload            //当前在重载
0000d2  4828              LDR      r0,|L5.372|
0000d4  7800              LDRB     r0,[r0,#0]  ; Load_stCurr
0000d6  2803              CMP      r0,#3
0000d8  d02a              BEQ      |L5.304|
;;;529    		||Accped_r <= 10||Accped_r >= 85       //松掉油门 或者 踩到底
0000da  492c              LDR      r1,|L5.396|
0000dc  482c              LDR      r0,|L5.400|
0000de  6800              LDR      r0,[r0,#0]  ; Accped_r
0000e0  f7fffffe          BL       __aeabi_cfcmple
0000e4  d924              BLS      |L5.304|
0000e6  492b              LDR      r1,|L5.404|
0000e8  4829              LDR      r0,|L5.400|
0000ea  6800              LDR      r0,[r0,#0]  ; Accped_r
0000ec  f7fffffe          BL       __aeabi_cfrcmple
0000f0  d91e              BLS      |L5.304|
;;;530    		||App_dev <- 25 ||App_dev  >  15       //当前油门开度 - 3s平均开度
0000f2  481e              LDR      r0,|L5.364|
0000f4  6800              LDR      r0,[r0,#0]  ; App_dev
0000f6  f1100f19          CMN      r0,#0x19
0000fa  db19              BLT      |L5.304|
0000fc  481b              LDR      r0,|L5.364|
0000fe  6800              LDR      r0,[r0,#0]  ; App_dev
000100  280f              CMP      r0,#0xf
000102  dc15              BGT      |L5.304|
;;;531    		||(Accped_rint - App_rFreeze) > 20 || (Accped_rint - App_rFreeze) <- 25    //当前踏板开度与冻结值进行比较
000104  4817              LDR      r0,|L5.356|
000106  6800              LDR      r0,[r0,#0]  ; Accped_rint
000108  4919              LDR      r1,|L5.368|
00010a  6809              LDR      r1,[r1,#0]  ; App_rFreeze
00010c  1a40              SUBS     r0,r0,r1
00010e  2814              CMP      r0,#0x14
000110  dc0e              BGT      |L5.304|
000112  4814              LDR      r0,|L5.356|
000114  6800              LDR      r0,[r0,#0]  ; Accped_rint
000116  4916              LDR      r1,|L5.368|
000118  6809              LDR      r1,[r1,#0]  ; App_rFreeze
00011a  1a40              SUBS     r0,r0,r1
00011c  f1100f19          CMN      r0,#0x19
000120  db06              BLT      |L5.304|
;;;532    		||(Accped_r3s - App_rFreeze) > 15)     //3秒踏板平均开度与冻结值比较 
000122  4811              LDR      r0,|L5.360|
000124  6800              LDR      r0,[r0,#0]  ; Accped_r3s
000126  4912              LDR      r1,|L5.368|
000128  6809              LDR      r1,[r1,#0]  ; App_rFreeze
00012a  1a40              SUBS     r0,r0,r1
00012c  280f              CMP      r0,#0xf
00012e  dd0a              BLE      |L5.326|
                  |L5.304|
;;;533    	{
;;;534    		CL_stOutflag = 1; 					   //取消扭矩限制
000130  2001              MOVS     r0,#1
000132  4913              LDR      r1,|L5.384|
000134  7008              STRB     r0,[r1,#0]
;;;535    		App_rFreeze  = 0;                      //等待
000136  2000              MOVS     r0,#0
000138  490d              LDR      r1,|L5.368|
00013a  6008              STR      r0,[r1,#0]  ; App_rFreeze
;;;536    		TimerAPP0Reset();                      //重新计时 
00013c  4905              LDR      r1,|L5.340|
00013e  8008              STRH     r0,[r1,#0]
000140  4905              LDR      r1,|L5.344|
000142  7008              STRB     r0,[r1,#0]
000144  e004              B        |L5.336|
                  |L5.326|
;;;537    	}
;;;538    	else 
;;;539    		TimerAPP0Reset();	 
000146  2000              MOVS     r0,#0
000148  4902              LDR      r1,|L5.340|
00014a  8008              STRH     r0,[r1,#0]
00014c  4902              LDR      r1,|L5.344|
00014e  7008              STRB     r0,[r1,#0]
                  |L5.336|
;;;540    }
000150  bd10              POP      {r4,pc}
;;;541    
                          ENDP

000152  0000              DCW      0x0000
                  |L5.340|
                          DCD      TimerAPPCnt0
                  |L5.344|
                          DCD      APP_T0
                  |L5.348|
                          DCD      rdev
                  |L5.352|
                          DCD      mrdev
                  |L5.356|
                          DCD      Accped_rint
                  |L5.360|
                          DCD      Accped_r3s
                  |L5.364|
                          DCD      App_dev
                  |L5.368|
                          DCD      App_rFreeze
                  |L5.372|
                          DCD      Load_stCurr
                  |L5.376|
                          DCD      0x447a0000
                  |L5.380|
                          DCD      Eng_nAvg
                  |L5.384|
                          DCD      CL_stOutflag
                  |L5.388|
                          DCD      CoEng_rtrqInrAvg
                  |L5.392|
                          DCD      trqmax
                  |L5.396|
                          DCD      0x41200000
                  |L5.400|
                          DCD      Accped_r
                  |L5.404|
                          DCD      0x42aa0000

                          AREA ||i.GearDetect||, CODE, READONLY, ALIGN=2

                  GearDetect PROC
;;;380    
;;;381    void GearDetect(void)  //10ms     输入信号的获取 
000000  e92d41f0          PUSH     {r4-r8,lr}
;;;382    {
;;;383    	Eng_nAvg       = Eng_nRaw / 8;                     //发动机转速 / 8
000004  4874              LDR      r0,|L6.472|
000006  78c1              LDRB     r1,[r0,#3]  ; RCVData0
000008  7900              LDRB     r0,[r0,#4]  ; RCVData0
00000a  eb012400          ADD      r4,r1,r0,LSL #8
00000e  17e1              ASRS     r1,r4,#31
000010  eb047151          ADD      r1,r4,r1,LSR #29
000014  10c8              ASRS     r0,r1,#3
000016  f7fffffe          BL       __aeabi_i2f
00001a  4970              LDR      r1,|L6.476|
00001c  6008              STR      r0,[r1,#0]  ; Eng_nAvg
;;;384    	Eng_nAvgFlt    = SignalFlter(Eng_nAvg,Eng_nAvgFltOld,0.5);//
00001e  f04f527c          MOV      r2,#0x3f000000
000022  486f              LDR      r0,|L6.480|
000024  6801              LDR      r1,[r0,#0]  ; Eng_nAvgFltOld
000026  486d              LDR      r0,|L6.476|
000028  6800              LDR      r0,[r0,#0]  ; Eng_nAvg
00002a  f7fffffe          BL       SignalFlter
00002e  496d              LDR      r1,|L6.484|
000030  6008              STR      r0,[r1,#0]  ; Eng_nAvgFlt
;;;385    	Eng_nAvgFltOld = Eng_nAvgFlt;
000032  4608              MOV      r0,r1
000034  6800              LDR      r0,[r0,#0]  ; Eng_nAvgFlt
000036  496a              LDR      r1,|L6.480|
000038  6008              STR      r0,[r1,#0]  ; Eng_nAvgFltOld
;;;386    	Eng_nAvgFltInt = (int)Eng_nAvgFlt;
00003a  486a              LDR      r0,|L6.484|
00003c  6800              LDR      r0,[r0,#0]  ; Eng_nAvgFlt
00003e  f7fffffe          BL       __aeabi_f2iz
000042  4969              LDR      r1,|L6.488|
000044  8008              STRH     r0,[r1,#0]
;;;387    	Curr_trq       = Curr_trqRaw;         //内部扭拒 当前扭矩
000046  4864              LDR      r0,|L6.472|
000048  7880              LDRB     r0,[r0,#2]  ; RCVData0
00004a  4968              LDR      r1,|L6.492|
00004c  7008              STRB     r0,[r1,#0]
;;;388    	if(BAM_EC1[0]==0x20 && BAM_EC1[1] == 0x27 && BAM_EC1[2] == 0x00)
00004e  4868              LDR      r0,|L6.496|
000050  7800              LDRB     r0,[r0,#0]  ; RCVData6
000052  2820              CMP      r0,#0x20
000054  d125              BNE      |L6.162|
000056  4866              LDR      r0,|L6.496|
000058  7840              LDRB     r0,[r0,#1]  ; RCVData6
00005a  2827              CMP      r0,#0x27
00005c  d121              BNE      |L6.162|
00005e  4864              LDR      r0,|L6.496|
000060  7880              LDRB     r0,[r0,#2]  ; RCVData6
000062  b9f0              CBNZ     r0,|L6.162|
;;;389    	{	  
;;;390    		if(EC1_PackNum == 3)//这个变量没找到赋值的地方啊
000064  4863              LDR      r0,|L6.500|
000066  7800              LDRB     r0,[r0,#0]  ; RCVData5
000068  2803              CMP      r0,#3
00006a  d109              BNE      |L6.128|
;;;391    		{
;;;392    			Moffrm_trqMax = Moffrm_trqMaxRaw;   //最大扭矩
00006c  4961              LDR      r1,|L6.500|
00006e  798a              LDRB     r2,[r1,#6]  ; RCVData5
000070  79c9              LDRB     r1,[r1,#7]  ; RCVData5
000072  eb022001          ADD      r0,r2,r1,LSL #8
000076  f7fffffe          BL       __aeabi_i2f
00007a  495f              LDR      r1,|L6.504|
00007c  6008              STR      r0,[r1,#0]  ; Moffrm_trqMax
00007e  e010              B        |L6.162|
                  |L6.128|
;;;393    		} 
;;;394    		else if(EC1_PackNum == 1)
000080  485c              LDR      r0,|L6.500|
000082  7800              LDRB     r0,[r0,#0]  ; RCVData5
000084  2801              CMP      r0,#1
000086  d10c              BNE      |L6.162|
;;;395    		{
;;;396    			RateSpeed = RateSpeedRaw/8;
000088  485a              LDR      r0,|L6.500|
00008a  7901              LDRB     r1,[r0,#4]  ; RCVData5
00008c  7940              LDRB     r0,[r0,#5]  ; RCVData5
00008e  eb012400          ADD      r4,r1,r0,LSL #8
000092  17e1              ASRS     r1,r4,#31
000094  eb047151          ADD      r1,r4,r1,LSR #29
000098  10c8              ASRS     r0,r1,#3
00009a  f7fffffe          BL       __aeabi_i2f
00009e  4957              LDR      r1,|L6.508|
0000a0  6008              STR      r0,[r1,#0]  ; RateSpeed
                  |L6.162|
;;;397    		}
;;;398    	}    
;;;399    	Coeng_trqInrCurr = Curr_trq*Moffrm_trqMax/100;   //赋值之后怎么没有后续的操作呢？没用
0000a2  4852              LDR      r0,|L6.492|
0000a4  7800              LDRB     r0,[r0,#0]  ; Curr_trq
0000a6  f7fffffe          BL       __aeabi_ui2f
0000aa  4606              MOV      r6,r0
0000ac  4852              LDR      r0,|L6.504|
0000ae  6801              LDR      r1,[r0,#0]  ; Moffrm_trqMax
0000b0  4630              MOV      r0,r6
0000b2  f7fffffe          BL       __aeabi_fmul
0000b6  4605              MOV      r5,r0
0000b8  4951              LDR      r1,|L6.512|
0000ba  f7fffffe          BL       __aeabi_fdiv
0000be  4604              MOV      r4,r0
0000c0  f7fffffe          BL       __aeabi_f2iz
0000c4  494f              LDR      r1,|L6.516|
0000c6  6008              STR      r0,[r1,#0]  ; Coeng_trqInrCurr
;;;400    	EngPrt_trqLim  = EngPrt_trqLimRaw / 10;          //外特性 / 10
0000c8  484f              LDR      r0,|L6.520|
0000ca  7801              LDRB     r1,[r0,#0]  ; RCVData3
0000cc  7840              LDRB     r0,[r0,#1]  ; RCVData3
0000ce  eb012000          ADD      r0,r1,r0,LSL #8
0000d2  210a              MOVS     r1,#0xa
0000d4  fb90f4f1          SDIV     r4,r0,r1
0000d8  4620              MOV      r0,r4
0000da  f7fffffe          BL       __aeabi_i2f
0000de  494b              LDR      r1,|L6.524|
0000e0  6008              STR      r0,[r1,#0]  ; EngPrt_trqLim
;;;401    	CoEng_trq      = CoEng_trqRaw/10;                //发动机的输出扭矩 / 10
0000e2  484b              LDR      r0,|L6.528|
0000e4  7901              LDRB     r1,[r0,#4]  ; RCVData2
0000e6  7940              LDRB     r0,[r0,#5]  ; RCVData2
0000e8  eb012000          ADD      r0,r1,r0,LSL #8
0000ec  210a              MOVS     r1,#0xa
0000ee  fb90f4f1          SDIV     r4,r0,r1
0000f2  4620              MOV      r0,r4
0000f4  f7fffffe          BL       __aeabi_i2f
0000f8  4946              LDR      r1,|L6.532|
0000fa  6008              STR      r0,[r1,#0]  ; CoEng_trq
;;;402    	CoEng_trqint   = (signed int)CoEng_trq;		     //取整
0000fc  4608              MOV      r0,r1
0000fe  6800              LDR      r0,[r0,#0]  ; CoEng_trq
000100  f7fffffe          BL       __aeabi_f2iz
000104  4944              LDR      r1,|L6.536|
000106  6008              STR      r0,[r1,#0]  ; CoEng_trqint
;;;403    	Accped_r       = Accped_rRaw*0.4;                //踏板 * 0.4
000108  4944              LDR      r1,|L6.540|
00010a  7848              LDRB     r0,[r1,#1]  ; RCVData1
00010c  f7fffffe          BL       __aeabi_ui2d
000110  4606              MOV      r6,r0
000112  4a43              LDR      r2,|L6.544|
000114  4b43              LDR      r3,|L6.548|
000116  f7fffffe          BL       __aeabi_dmul
00011a  4604              MOV      r4,r0
00011c  f7fffffe          BL       __aeabi_d2f
000120  4941              LDR      r1,|L6.552|
000122  6008              STR      r0,[r1,#0]  ; Accped_r
;;;404    	Accped_rint    = (int)Accped_r;	                 //对踏板运算结果取整
000124  4608              MOV      r0,r1
000126  6800              LDR      r0,[r0,#0]  ; Accped_r
000128  f7fffffe          BL       __aeabi_f2iz
00012c  493f              LDR      r1,|L6.556|
00012e  6008              STR      r0,[r1,#0]  ; Accped_rint
;;;405    	Accped_rFlt    = SignalFlter(Accped_r,Accped_rFltOld,Accpet_tiPT1);//（踏板运算，上次踏板，0.9）
000130  4a3f              LDR      r2,|L6.560|
000132  4840              LDR      r0,|L6.564|
000134  6801              LDR      r1,[r0,#0]  ; Accped_rFltOld
000136  483c              LDR      r0,|L6.552|
000138  6800              LDR      r0,[r0,#0]  ; Accped_r
00013a  f7fffffe          BL       SignalFlter
00013e  493e              LDR      r1,|L6.568|
000140  6008              STR      r0,[r1,#0]  ; Accped_rFlt
;;;406    	Accped_rFltOld = Accped_rFlt;                    //将旧值覆盖，（踏板）
000142  4608              MOV      r0,r1
000144  6800              LDR      r0,[r0,#0]  ; Accped_rFlt
000146  493b              LDR      r1,|L6.564|
000148  6008              STR      r0,[r1,#0]  ; Accped_rFltOld
;;;407    	Accped_rFltint = (int)Accped_rFlt;               //取整
00014a  483b              LDR      r0,|L6.568|
00014c  6800              LDR      r0,[r0,#0]  ; Accped_rFlt
00014e  f7fffffe          BL       __aeabi_f2iz
000152  493a              LDR      r1,|L6.572|
000154  6008              STR      r0,[r1,#0]  ; Accped_rFltint
;;;408    	CoEng_TrqFrc   = CoEng_TrqFrcRaw - 125;	         //摩擦扭矩  运算
000156  493a              LDR      r1,|L6.576|
000158  7809              LDRB     r1,[r1,#0]  ; RCVData4
00015a  f1a1007d          SUB      r0,r1,#0x7d
00015e  f7fffffe          BL       __aeabi_i2f
000162  4938              LDR      r1,|L6.580|
000164  6008              STR      r0,[r1,#0]  ; CoEng_TrqFrc
;;;409    	CoEng_rDrvLoad = DrvDem_trqRaw   - 125;          //驾驶员需求扭矩 运算
000166  481c              LDR      r0,|L6.472|
000168  7840              LDRB     r0,[r0,#1]  ; RCVData0
00016a  387d              SUBS     r0,r0,#0x7d
00016c  4936              LDR      r1,|L6.584|
00016e  7008              STRB     r0,[r1,#0]
;;;410    	CoEng_rDrvLoadFlt    = SignalFlter((float)CoEng_rDrvLoad,CoEng_rDrvLoadFltOld,CoEng_tiPT1rDrvLoad);//（需求扭矩，上次需求，0.7）
000170  4608              MOV      r0,r1
000172  7800              LDRB     r0,[r0,#0]  ; CoEng_rDrvLoad
000174  f7fffffe          BL       __aeabi_ui2f
000178  4604              MOV      r4,r0
00017a  4a34              LDR      r2,|L6.588|
00017c  4834              LDR      r0,|L6.592|
00017e  6801              LDR      r1,[r0,#0]  ; CoEng_rDrvLoadFltOld
000180  4620              MOV      r0,r4
000182  f7fffffe          BL       SignalFlter
000186  4933              LDR      r1,|L6.596|
000188  6008              STR      r0,[r1,#0]  ; CoEng_rDrvLoadFlt
;;;411    	CoEng_rDrvLoadFltOld = CoEng_rDrvLoadFlt;                                   //旧的覆盖新的
00018a  4608              MOV      r0,r1
00018c  6800              LDR      r0,[r0,#0]  ; CoEng_rDrvLoadFlt
00018e  4930              LDR      r1,|L6.592|
000190  6008              STR      r0,[r1,#0]  ; CoEng_rDrvLoadFltOld
;;;412    	CoEng_trqDrv10Load   = CoEng_rDrv10Load*Moffrm_trqMax / 100;            	//需求扭矩、最大扭矩、100
000192  4819              LDR      r0,|L6.504|
000194  6801              LDR      r1,[r0,#0]  ; Moffrm_trqMax
000196  4830              LDR      r0,|L6.600|
000198  6800              LDR      r0,[r0,#0]  ; CoEng_rDrv10Load
00019a  f7fffffe          BL       __aeabi_fmul
00019e  4605              MOV      r5,r0
0001a0  4917              LDR      r1,|L6.512|
0001a2  f7fffffe          BL       __aeabi_fdiv
0001a6  4604              MOV      r4,r0
0001a8  f7fffffe          BL       __aeabi_f2iz
0001ac  492b              LDR      r1,|L6.604|
0001ae  6008              STR      r0,[r1,#0]  ; CoEng_trqDrv10Load
;;;413    	EngPrt_trqNet        = EngPrt_trqLim - CoEng_TrqFrc * Moffrm_trqMax / 100;	//赋值之后无操作啊  外特性 - 摩擦扭矩计算*最大扭矩运算/100
0001b0  4811              LDR      r0,|L6.504|
0001b2  6801              LDR      r1,[r0,#0]  ; Moffrm_trqMax
0001b4  4823              LDR      r0,|L6.580|
0001b6  6800              LDR      r0,[r0,#0]  ; CoEng_TrqFrc
0001b8  f7fffffe          BL       __aeabi_fmul
0001bc  4605              MOV      r5,r0
0001be  4910              LDR      r1,|L6.512|
0001c0  f7fffffe          BL       __aeabi_fdiv
0001c4  4604              MOV      r4,r0
0001c6  4811              LDR      r0,|L6.524|
0001c8  6801              LDR      r1,[r0,#0]  ; EngPrt_trqLim
0001ca  4620              MOV      r0,r4
0001cc  f7fffffe          BL       __aeabi_frsub
0001d0  4923              LDR      r1,|L6.608|
0001d2  6008              STR      r0,[r1,#0]  ; EngPrt_trqNet
;;;414    }
0001d4  e8bd81f0          POP      {r4-r8,pc}
;;;415    
                          ENDP

                  |L6.472|
                          DCD      RCVData0
                  |L6.476|
                          DCD      Eng_nAvg
                  |L6.480|
                          DCD      Eng_nAvgFltOld
                  |L6.484|
                          DCD      Eng_nAvgFlt
                  |L6.488|
                          DCD      Eng_nAvgFltInt
                  |L6.492|
                          DCD      Curr_trq
                  |L6.496|
                          DCD      RCVData6
                  |L6.500|
                          DCD      RCVData5
                  |L6.504|
                          DCD      Moffrm_trqMax
                  |L6.508|
                          DCD      RateSpeed
                  |L6.512|
                          DCD      0x42c80000
                  |L6.516|
                          DCD      Coeng_trqInrCurr
                  |L6.520|
                          DCD      RCVData3
                  |L6.524|
                          DCD      EngPrt_trqLim
                  |L6.528|
                          DCD      RCVData2
                  |L6.532|
                          DCD      CoEng_trq
                  |L6.536|
                          DCD      CoEng_trqint
                  |L6.540|
                          DCD      RCVData1
                  |L6.544|
                          DCD      0x9999999a
                  |L6.548|
                          DCD      0x3fd99999
                  |L6.552|
                          DCD      Accped_r
                  |L6.556|
                          DCD      Accped_rint
                  |L6.560|
                          DCD      0x3f666666
                  |L6.564|
                          DCD      Accped_rFltOld
                  |L6.568|
                          DCD      Accped_rFlt
                  |L6.572|
                          DCD      Accped_rFltint
                  |L6.576|
                          DCD      RCVData4
                  |L6.580|
                          DCD      CoEng_TrqFrc
                  |L6.584|
                          DCD      CoEng_rDrvLoad
                  |L6.588|
                          DCD      0x3f333333
                  |L6.592|
                          DCD      CoEng_rDrvLoadFltOld
                  |L6.596|
                          DCD      CoEng_rDrvLoadFlt
                  |L6.600|
                          DCD      CoEng_rDrv10Load
                  |L6.604|
                          DCD      CoEng_trqDrv10Load
                  |L6.608|
                          DCD      EngPrt_trqNet

                          AREA ||i.SaveFuleTask||, CODE, READONLY, ALIGN=2

                  SaveFuleTask PROC
;;;205    //节油任务
;;;206     void SaveFuleTask(void *pdata)
000000  2003              MOVS     r0,#3
;;;207    {
;;;208    	Load_stCurr   = Highload;      // 当前正处    轻、中、重载 的模式
000002  49c0              LDR      r1,|L7.772|
000004  7008              STRB     r0,[r1,#0]
;;;209    	Load_stTarget = Midload;       // 设置当前于  轻、中、重载 模式的记录变量
000006  2002              MOVS     r0,#2
000008  49bf              LDR      r1,|L7.776|
00000a  7008              STRB     r0,[r1,#0]
;;;210    	trqmax        = 225;
00000c  20e1              MOVS     r0,#0xe1
00000e  49bf              LDR      r1,|L7.780|
000010  8008              STRH     r0,[r1,#0]
;;;211    	TrqLoad       = 150;           // 第一次装载值
000012  48bf              LDR      r0,|L7.784|
000014  49bf              LDR      r1,|L7.788|
000016  6008              STR      r0,[r1,#0]  ; TrqLoad
;;;212    	while(1)
000018  e172              B        |L7.768|
                  |L7.26|
;;;213    	{
;;;214    		OSTimeDlyHMSM(0,0,0,1);	
00001a  2301              MOVS     r3,#1
00001c  2200              MOVS     r2,#0
00001e  4611              MOV      r1,r2
000020  4610              MOV      r0,r2
000022  f7fffffe          BL       OSTimeDlyHMSM
;;;215    		SystemTime10ms  ++;
000026  48bc              LDR      r0,|L7.792|
000028  8800              LDRH     r0,[r0,#0]  ; SystemTime10ms
00002a  1c40              ADDS     r0,r0,#1
00002c  49ba              LDR      r1,|L7.792|
00002e  8008              STRH     r0,[r1,#0]
;;;216    		SystemTime50ms  ++;
000030  48ba              LDR      r0,|L7.796|
000032  8800              LDRH     r0,[r0,#0]  ; SystemTime50ms
000034  1c40              ADDS     r0,r0,#1
000036  49b9              LDR      r1,|L7.796|
000038  8008              STRH     r0,[r1,#0]
;;;217    		SystemTime100ms ++;
00003a  48b9              LDR      r0,|L7.800|
00003c  8800              LDRH     r0,[r0,#0]  ; SystemTime100ms
00003e  1c40              ADDS     r0,r0,#1
000040  49b7              LDR      r1,|L7.800|
000042  8008              STRH     r0,[r1,#0]
;;;218    		SystemTime500ms ++;
000044  48b7              LDR      r0,|L7.804|
000046  8800              LDRH     r0,[r0,#0]  ; SystemTime500ms
000048  1c40              ADDS     r0,r0,#1
00004a  49b6              LDR      r1,|L7.804|
00004c  8008              STRH     r0,[r1,#0]
;;;219    		SystemTime1s ++;
00004e  48b6              LDR      r0,|L7.808|
000050  8800              LDRH     r0,[r0,#0]  ; SystemTime1s
000052  1c40              ADDS     r0,r0,#1
000054  49b4              LDR      r1,|L7.808|
000056  8008              STRH     r0,[r1,#0]
;;;220    
;;;221    		//每毫秒都会进行数据检查
;;;222    		if(SystemTime10ms >= 10)
000058  48af              LDR      r0,|L7.792|
00005a  8800              LDRH     r0,[r0,#0]  ; SystemTime10ms
00005c  280a              CMP      r0,#0xa
00005e  db7d              BLT      |L7.348|
;;;223    		{
;;;224    			SystemTime10ms = 0;
000060  2000              MOVS     r0,#0
000062  49ad              LDR      r1,|L7.792|
000064  8008              STRH     r0,[r1,#0]
;;;225    			if(fCanOK) 
000066  48b1              LDR      r0,|L7.812|
000068  7800              LDRB     r0,[r0,#0]  ; fCanOK
00006a  2800              CMP      r0,#0
00006c  d076              BEQ      |L7.348|
;;;226    			{
;;;227    				GearDetect();  // 输入信号的获取
00006e  f7fffffe          BL       GearDetect
;;;228    				TrqLim();      // 根据发动机转速，得出中载、轻载状态下额定限制值
000072  f7fffffe          BL       TrqLim
;;;229    /*############################################################################### 
;;;230    						载荷状态变化时, 扭拒限制的斜率变化
;;;231    ################################################################################*/           
;;;232    				if(Load_stCurr == Highload)              //当前是重载模式  此处是标志
000076  48a3              LDR      r0,|L7.772|
000078  7800              LDRB     r0,[r0,#0]  ; Load_stCurr
00007a  2803              CMP      r0,#3
00007c  d155              BNE      |L7.298|
;;;233    				{
;;;234    					if(Load_stTarget == Midload)         //手机设定是中档模式   此处是模式标志
00007e  48a2              LDR      r0,|L7.776|
000080  7800              LDRB     r0,[r0,#0]  ; Load_stTarget
000082  2802              CMP      r0,#2
000084  d124              BNE      |L7.208|
;;;235    					{
;;;236    						if(TrqLoad > TrqlimMid)          //这个就是拿真实值进行比较了
000086  48aa              LDR      r0,|L7.816|
000088  6800              LDR      r0,[r0,#0]  ; TrqlimMid
00008a  f7fffffe          BL       __aeabi_i2f
00008e  4604              MOV      r4,r0
000090  48a0              LDR      r0,|L7.788|
000092  6801              LDR      r1,[r0,#0]  ; TrqLoad
000094  4620              MOV      r0,r4
000096  f7fffffe          BL       __aeabi_cfcmple
00009a  d20e              BCS      |L7.186|
;;;237    							TrqLoad = TrqLoad - 0.08;    // 8/s
00009c  489d              LDR      r0,|L7.788|
00009e  6800              LDR      r0,[r0,#0]  ; TrqLoad
0000a0  f7fffffe          BL       __aeabi_f2d
0000a4  4606              MOV      r6,r0
0000a6  4aa3              LDR      r2,|L7.820|
0000a8  4ba3              LDR      r3,|L7.824|
0000aa  f7fffffe          BL       __aeabi_dsub
0000ae  4604              MOV      r4,r0
0000b0  f7fffffe          BL       __aeabi_d2f
0000b4  4997              LDR      r1,|L7.788|
0000b6  6008              STR      r0,[r1,#0]  ; TrqLoad
0000b8  e0e2              B        |L7.640|
                  |L7.186|
;;;238    						else 
;;;239    						{
;;;240    							Load_stCurr = Load_stTarget; //达到预期状态了，赋值、相应标志
0000ba  4893              LDR      r0,|L7.776|
0000bc  7800              LDRB     r0,[r0,#0]  ; Load_stTarget
0000be  4991              LDR      r1,|L7.772|
0000c0  7008              STRB     r0,[r1,#0]
;;;241    							TrqLoad = TrqlimMid;
0000c2  489b              LDR      r0,|L7.816|
0000c4  6800              LDR      r0,[r0,#0]  ; TrqlimMid
0000c6  f7fffffe          BL       __aeabi_i2f
0000ca  4992              LDR      r1,|L7.788|
0000cc  6008              STR      r0,[r1,#0]  ; TrqLoad
0000ce  e0d7              B        |L7.640|
                  |L7.208|
;;;242    						}
;;;243    					} 
;;;244    					else if(Load_stTarget == Lowload)    //应该是轻载模式
0000d0  488d              LDR      r0,|L7.776|
0000d2  7800              LDRB     r0,[r0,#0]  ; Load_stTarget
0000d4  2801              CMP      r0,#1
0000d6  d124              BNE      |L7.290|
;;;245    					{
;;;246    						if(TrqLoad > TrqlimLow) TrqLoad = TrqLoad - 0.08; //8/s
0000d8  4898              LDR      r0,|L7.828|
0000da  6800              LDR      r0,[r0,#0]  ; TrqlimLow
0000dc  f7fffffe          BL       __aeabi_i2f
0000e0  4604              MOV      r4,r0
0000e2  488c              LDR      r0,|L7.788|
0000e4  6801              LDR      r1,[r0,#0]  ; TrqLoad
0000e6  4620              MOV      r0,r4
0000e8  f7fffffe          BL       __aeabi_cfcmple
0000ec  d20e              BCS      |L7.268|
0000ee  4889              LDR      r0,|L7.788|
0000f0  6800              LDR      r0,[r0,#0]  ; TrqLoad
0000f2  f7fffffe          BL       __aeabi_f2d
0000f6  4606              MOV      r6,r0
0000f8  4a8e              LDR      r2,|L7.820|
0000fa  4b8f              LDR      r3,|L7.824|
0000fc  f7fffffe          BL       __aeabi_dsub
000100  4604              MOV      r4,r0
000102  f7fffffe          BL       __aeabi_d2f
000106  4983              LDR      r1,|L7.788|
000108  6008              STR      r0,[r1,#0]  ; TrqLoad
00010a  e0b9              B        |L7.640|
                  |L7.268|
;;;247    						else 
;;;248    						{
;;;249    							Load_stCurr = Load_stTarget;
00010c  487e              LDR      r0,|L7.776|
00010e  7800              LDRB     r0,[r0,#0]  ; Load_stTarget
000110  497c              LDR      r1,|L7.772|
000112  7008              STRB     r0,[r1,#0]
;;;250    							TrqLoad = TrqlimLow;
000114  4889              LDR      r0,|L7.828|
000116  6800              LDR      r0,[r0,#0]  ; TrqlimLow
000118  f7fffffe          BL       __aeabi_i2f
00011c  497d              LDR      r1,|L7.788|
00011e  6008              STR      r0,[r1,#0]  ; TrqLoad
000120  e0ae              B        |L7.640|
                  |L7.290|
;;;251    						}
;;;252    					} 
;;;253    					else TrqLoad = 225;     
000122  4887              LDR      r0,|L7.832|
000124  497b              LDR      r1,|L7.788|
000126  6008              STR      r0,[r1,#0]  ; TrqLoad
000128  e0aa              B        |L7.640|
                  |L7.298|
;;;254    				} 
;;;255    				else if(Load_stCurr == Midload)
00012a  4876              LDR      r0,|L7.772|
00012c  7800              LDRB     r0,[r0,#0]  ; Load_stCurr
00012e  2802              CMP      r0,#2
000130  d152              BNE      |L7.472|
;;;256    				{
;;;257    					if(Load_stTarget == Highload)
000132  4875              LDR      r0,|L7.776|
000134  7800              LDRB     r0,[r0,#0]  ; Load_stTarget
000136  2803              CMP      r0,#3
000138  d11e              BNE      |L7.376|
;;;258    					{
;;;259    						if(TrqLoad < 225) 
00013a  4981              LDR      r1,|L7.832|
00013c  4875              LDR      r0,|L7.788|
00013e  6800              LDR      r0,[r0,#0]  ; TrqLoad
000140  f7fffffe          BL       __aeabi_cfcmple
000144  d210              BCS      |L7.360|
;;;260    							TrqLoad = TrqLoad + 0.08; //8/s
000146  4873              LDR      r0,|L7.788|
000148  6800              LDR      r0,[r0,#0]  ; TrqLoad
00014a  f7fffffe          BL       __aeabi_f2d
00014e  4606              MOV      r6,r0
000150  4a78              LDR      r2,|L7.820|
000152  4b79              LDR      r3,|L7.824|
000154  f7fffffe          BL       __aeabi_dadd
000158  4604              MOV      r4,r0
00015a  e000              B        |L7.350|
                  |L7.348|
00015c  e099              B        |L7.658|
                  |L7.350|
00015e  f7fffffe          BL       __aeabi_d2f
000162  496c              LDR      r1,|L7.788|
000164  6008              STR      r0,[r1,#0]  ; TrqLoad
000166  e08b              B        |L7.640|
                  |L7.360|
;;;261    						else 
;;;262    						{
;;;263    							Load_stCurr = Load_stTarget;
000168  4867              LDR      r0,|L7.776|
00016a  7800              LDRB     r0,[r0,#0]  ; Load_stTarget
00016c  4965              LDR      r1,|L7.772|
00016e  7008              STRB     r0,[r1,#0]
;;;264    							TrqLoad = 225;
000170  4873              LDR      r0,|L7.832|
000172  4968              LDR      r1,|L7.788|
000174  6008              STR      r0,[r1,#0]  ; TrqLoad
000176  e083              B        |L7.640|
                  |L7.376|
;;;265    						}
;;;266    					} 
;;;267    					else if(Load_stTarget == Lowload)
000178  4863              LDR      r0,|L7.776|
00017a  7800              LDRB     r0,[r0,#0]  ; Load_stTarget
00017c  2801              CMP      r0,#1
00017e  d124              BNE      |L7.458|
;;;268    					{
;;;269    						if(TrqLoad > TrqlimLow) 
000180  486e              LDR      r0,|L7.828|
000182  6800              LDR      r0,[r0,#0]  ; TrqlimLow
000184  f7fffffe          BL       __aeabi_i2f
000188  4604              MOV      r4,r0
00018a  4862              LDR      r0,|L7.788|
00018c  6801              LDR      r1,[r0,#0]  ; TrqLoad
00018e  4620              MOV      r0,r4
000190  f7fffffe          BL       __aeabi_cfcmple
000194  d20e              BCS      |L7.436|
;;;270    							TrqLoad = TrqLoad - 0.08; //8/s
000196  485f              LDR      r0,|L7.788|
000198  6800              LDR      r0,[r0,#0]  ; TrqLoad
00019a  f7fffffe          BL       __aeabi_f2d
00019e  4606              MOV      r6,r0
0001a0  4a64              LDR      r2,|L7.820|
0001a2  4b65              LDR      r3,|L7.824|
0001a4  f7fffffe          BL       __aeabi_dsub
0001a8  4604              MOV      r4,r0
0001aa  f7fffffe          BL       __aeabi_d2f
0001ae  4959              LDR      r1,|L7.788|
0001b0  6008              STR      r0,[r1,#0]  ; TrqLoad
0001b2  e065              B        |L7.640|
                  |L7.436|
;;;271    						else 
;;;272    						{
;;;273    							Load_stCurr = Load_stTarget;
0001b4  4854              LDR      r0,|L7.776|
0001b6  7800              LDRB     r0,[r0,#0]  ; Load_stTarget
0001b8  4952              LDR      r1,|L7.772|
0001ba  7008              STRB     r0,[r1,#0]
;;;274    							TrqLoad     = TrqlimLow;
0001bc  485f              LDR      r0,|L7.828|
0001be  6800              LDR      r0,[r0,#0]  ; TrqlimLow
0001c0  f7fffffe          BL       __aeabi_i2f
0001c4  4953              LDR      r1,|L7.788|
0001c6  6008              STR      r0,[r1,#0]  ; TrqLoad
0001c8  e05a              B        |L7.640|
                  |L7.458|
;;;275    						}
;;;276    					} 
;;;277    					else TrqLoad = TrqlimMid; 
0001ca  4859              LDR      r0,|L7.816|
0001cc  6800              LDR      r0,[r0,#0]  ; TrqlimMid
0001ce  f7fffffe          BL       __aeabi_i2f
0001d2  4950              LDR      r1,|L7.788|
0001d4  6008              STR      r0,[r1,#0]  ; TrqLoad
0001d6  e053              B        |L7.640|
                  |L7.472|
;;;278    				}
;;;279    				else if(Load_stCurr  == Lowload)
0001d8  484a              LDR      r0,|L7.772|
0001da  7800              LDRB     r0,[r0,#0]  ; Load_stCurr
0001dc  2801              CMP      r0,#1
0001de  d14f              BNE      |L7.640|
;;;280    				{
;;;281    					if(Load_stTarget == Highload)
0001e0  4849              LDR      r0,|L7.776|
0001e2  7800              LDRB     r0,[r0,#0]  ; Load_stTarget
0001e4  2803              CMP      r0,#3
0001e6  d11c              BNE      |L7.546|
;;;282    					{
;;;283    						if(TrqLoad < 225) TrqLoad = TrqLoad + 0.08; //8/s
0001e8  4955              LDR      r1,|L7.832|
0001ea  484a              LDR      r0,|L7.788|
0001ec  6800              LDR      r0,[r0,#0]  ; TrqLoad
0001ee  f7fffffe          BL       __aeabi_cfcmple
0001f2  d20e              BCS      |L7.530|
0001f4  4847              LDR      r0,|L7.788|
0001f6  6800              LDR      r0,[r0,#0]  ; TrqLoad
0001f8  f7fffffe          BL       __aeabi_f2d
0001fc  4606              MOV      r6,r0
0001fe  4a4d              LDR      r2,|L7.820|
000200  4b4d              LDR      r3,|L7.824|
000202  f7fffffe          BL       __aeabi_dadd
000206  4604              MOV      r4,r0
000208  f7fffffe          BL       __aeabi_d2f
00020c  4941              LDR      r1,|L7.788|
00020e  6008              STR      r0,[r1,#0]  ; TrqLoad
000210  e036              B        |L7.640|
                  |L7.530|
;;;284    						else
;;;285    						{
;;;286    							Load_stCurr = Load_stTarget;
000212  483d              LDR      r0,|L7.776|
000214  7800              LDRB     r0,[r0,#0]  ; Load_stTarget
000216  493b              LDR      r1,|L7.772|
000218  7008              STRB     r0,[r1,#0]
;;;287    							TrqLoad     = 225;
00021a  4849              LDR      r0,|L7.832|
00021c  493d              LDR      r1,|L7.788|
00021e  6008              STR      r0,[r1,#0]  ; TrqLoad
000220  e02e              B        |L7.640|
                  |L7.546|
;;;288    						}
;;;289    					} 
;;;290    					else if(Load_stTarget == Midload)
000222  4839              LDR      r0,|L7.776|
000224  7800              LDRB     r0,[r0,#0]  ; Load_stTarget
000226  2802              CMP      r0,#2
000228  d124              BNE      |L7.628|
;;;291    					{
;;;292    						if(TrqLoad<TrqlimMid) 
00022a  4841              LDR      r0,|L7.816|
00022c  6800              LDR      r0,[r0,#0]  ; TrqlimMid
00022e  f7fffffe          BL       __aeabi_i2f
000232  4604              MOV      r4,r0
000234  4837              LDR      r0,|L7.788|
000236  6801              LDR      r1,[r0,#0]  ; TrqLoad
000238  4620              MOV      r0,r4
00023a  f7fffffe          BL       __aeabi_cfrcmple
00023e  d20e              BCS      |L7.606|
;;;293    							TrqLoad = TrqLoad + 0.08; //  8/s
000240  4834              LDR      r0,|L7.788|
000242  6800              LDR      r0,[r0,#0]  ; TrqLoad
000244  f7fffffe          BL       __aeabi_f2d
000248  4606              MOV      r6,r0
00024a  4a3a              LDR      r2,|L7.820|
00024c  4b3a              LDR      r3,|L7.824|
00024e  f7fffffe          BL       __aeabi_dadd
000252  4604              MOV      r4,r0
000254  f7fffffe          BL       __aeabi_d2f
000258  492e              LDR      r1,|L7.788|
00025a  6008              STR      r0,[r1,#0]  ; TrqLoad
00025c  e010              B        |L7.640|
                  |L7.606|
;;;294    						else 
;;;295    						{
;;;296    							Load_stCurr = Load_stTarget;
00025e  482a              LDR      r0,|L7.776|
000260  7800              LDRB     r0,[r0,#0]  ; Load_stTarget
000262  4928              LDR      r1,|L7.772|
000264  7008              STRB     r0,[r1,#0]
;;;297    							TrqLoad = TrqlimMid;
000266  4832              LDR      r0,|L7.816|
000268  6800              LDR      r0,[r0,#0]  ; TrqlimMid
00026a  f7fffffe          BL       __aeabi_i2f
00026e  4929              LDR      r1,|L7.788|
000270  6008              STR      r0,[r1,#0]  ; TrqLoad
000272  e005              B        |L7.640|
                  |L7.628|
;;;298    						}
;;;299    					} 
;;;300    					else TrqLoad = TrqlimLow; 
000274  4831              LDR      r0,|L7.828|
000276  6800              LDR      r0,[r0,#0]  ; TrqlimLow
000278  f7fffffe          BL       __aeabi_i2f
00027c  4925              LDR      r1,|L7.788|
00027e  6008              STR      r0,[r1,#0]  ; TrqLoad
                  |L7.640|
;;;301    				}            
;;;302    				
;;;303    //				if(varOperation.oilMode == 2)//节油功能
;;;304    //				{
;;;305    					ConstLimitation();       //稳油功能
000280  f7fffffe          BL       ConstLimitation
;;;306    					UpdateTxDataAMT();       //限制按照最小的值来   需求扭矩 跟 设定扭矩
000284  f7fffffe          BL       UpdateTxDataAMT
;;;307    					OBD_CAN_SendData(0x0C000021,CAN_ID_EXT,trq); //todo 发送节油，等待运行
000288  4a2e              LDR      r2,|L7.836|
00028a  2104              MOVS     r1,#4
00028c  482e              LDR      r0,|L7.840|
00028e  f7fffffe          BL       OBD_CAN_SendData
                  |L7.658|
;;;308    //				}
;;;309    //				else if(trq[3] < 225)          //当前模式非节油
;;;310    //				{
;;;311    //					trq[3]++;
;;;312    //					trq[0] = 35;
;;;313    //					OBD_CAN_SendData(0x0C000021,CAN_ID_EXT,trq);
;;;314    //				}
;;;315    			}
;;;316    		}
;;;317    		if(SystemTime50ms)            //稳油退出 斜率   50ms + 1
000292  4822              LDR      r0,|L7.796|
000294  8800              LDRH     r0,[r0,#0]  ; SystemTime50ms
000296  b1b0              CBZ      r0,|L7.710|
;;;318    		{
;;;319    			SystemTime50ms = 0;
000298  2000              MOVS     r0,#0
00029a  4920              LDR      r1,|L7.796|
00029c  8008              STRH     r0,[r1,#0]
;;;320    			if(fCanOK) 
00029e  4823              LDR      r0,|L7.812|
0002a0  7800              LDRB     r0,[r0,#0]  ; fCanOK
0002a2  b180              CBZ      r0,|L7.710|
;;;321    			{
;;;322    				if(CL_stOutflag == 1) 
0002a4  4829              LDR      r0,|L7.844|
0002a6  7800              LDRB     r0,[r0,#0]  ; CL_stOutflag
0002a8  2801              CMP      r0,#1
0002aa  d10c              BNE      |L7.710|
;;;323    				{
;;;324    					if(trqmax < 225)    //退出节油模式  最大值要自增
0002ac  4817              LDR      r0,|L7.780|
0002ae  8800              LDRH     r0,[r0,#0]  ; trqmax
0002b0  28e1              CMP      r0,#0xe1
0002b2  da05              BGE      |L7.704|
;;;325    					{
;;;326    						trqmax++;
0002b4  4815              LDR      r0,|L7.780|
0002b6  8800              LDRH     r0,[r0,#0]  ; trqmax
0002b8  1c40              ADDS     r0,r0,#1
0002ba  4914              LDR      r1,|L7.780|
0002bc  8008              STRH     r0,[r1,#0]
0002be  e002              B        |L7.710|
                  |L7.704|
;;;327    					} 
;;;328    					else
;;;329    					{
;;;330    						CL_stOutflag = 0;
0002c0  2000              MOVS     r0,#0
0002c2  4922              LDR      r1,|L7.844|
0002c4  7008              STRB     r0,[r1,#0]
                  |L7.710|
;;;331    					}
;;;332    				}
;;;333    			}
;;;334    		}
;;;335    		if(SystemTime100ms >= 100)	 //计算20秒的平均扭矩，3秒的平均油门
0002c6  4816              LDR      r0,|L7.800|
0002c8  8800              LDRH     r0,[r0,#0]  ; SystemTime100ms
0002ca  2864              CMP      r0,#0x64
0002cc  db10              BLT      |L7.752|
;;;336    		{
;;;337    			SystemTime100ms = 0;
0002ce  2000              MOVS     r0,#0
0002d0  4913              LDR      r1,|L7.800|
0002d2  8008              STRH     r0,[r1,#0]
;;;338    			numCAN=0;
0002d4  491e              LDR      r1,|L7.848|
0002d6  6008              STR      r0,[r1,#0]  ; numCAN
;;;339    			if(fCanOK)
0002d8  4814              LDR      r0,|L7.812|
0002da  7800              LDRB     r0,[r0,#0]  ; fCanOK
0002dc  b128              CBZ      r0,|L7.746|
;;;340    			{
;;;341    				CoEng_rloadCal();    //平均负荷率计算, 平均转速计算, 平均油门计算
0002de  f7fffffe          BL       CoEng_rloadCal
;;;342    //##############################################################
;;;343    				CANerr_flg = 1;
0002e2  2001              MOVS     r0,#1
0002e4  491b              LDR      r1,|L7.852|
0002e6  7008              STRB     r0,[r1,#0]
0002e8  e002              B        |L7.752|
                  |L7.746|
;;;344    			}
;;;345    			else 
;;;346    				CANerr_flg = 0;
0002ea  2000              MOVS     r0,#0
0002ec  4919              LDR      r1,|L7.852|
0002ee  7008              STRB     r0,[r1,#0]
                  |L7.752|
;;;347    		} 
;;;348    		if(SystemTime500ms >= 500)
0002f0  480c              LDR      r0,|L7.804|
0002f2  8800              LDRH     r0,[r0,#0]  ; SystemTime500ms
0002f4  f5b07ffa          CMP      r0,#0x1f4
0002f8  db02              BLT      |L7.768|
;;;349    		{
;;;350    			SystemTime500ms = 0;
0002fa  2000              MOVS     r0,#0
0002fc  4909              LDR      r1,|L7.804|
0002fe  8008              STRH     r0,[r1,#0]
                  |L7.768|
000300  e68b              B        |L7.26|
;;;351    //			if(fCanOK)
;;;352    //			{
;;;353    //			CANr1=0,CANr2=0,CANr3=0,CANr4=0,CANr5=0,CANr6=0,CANr7=0;   //fCanOK = 0;
;;;354    //			}
;;;355    			
;;;356    		}
;;;357    	}
;;;358    }
;;;359    
                          ENDP

000302  0000              DCW      0x0000
                  |L7.772|
                          DCD      Load_stCurr
                  |L7.776|
                          DCD      Load_stTarget
                  |L7.780|
                          DCD      trqmax
                  |L7.784|
                          DCD      0x43160000
                  |L7.788|
                          DCD      TrqLoad
                  |L7.792|
                          DCD      SystemTime10ms
                  |L7.796|
                          DCD      SystemTime50ms
                  |L7.800|
                          DCD      SystemTime100ms
                  |L7.804|
                          DCD      SystemTime500ms
                  |L7.808|
                          DCD      SystemTime1s
                  |L7.812|
                          DCD      fCanOK
                  |L7.816|
                          DCD      TrqlimMid
                  |L7.820|
                          DCD      0x47ae147b
                  |L7.824|
                          DCD      0x3fb47ae1
                  |L7.828|
                          DCD      TrqlimLow
                  |L7.832|
                          DCD      0x43610000
                  |L7.836|
                          DCD      trq
                  |L7.840|
                          DCD      0x0c000021
                  |L7.844|
                          DCD      CL_stOutflag
                  |L7.848|
                          DCD      numCAN
                  |L7.852|
                          DCD      CANerr_flg

                          AREA ||i.SaveJieYouData||, CODE, READONLY, ALIGN=1

                  SaveJieYouData PROC
;;;359    
;;;360    void SaveJieYouData(CanRxMsg* CAN1_RxMsg)
000000  bf00              NOP      
;;;361    {
;;;362    	switch(CAN1_RxMsg->ExtId)
;;;363    	{
;;;364    		default:break;
000002  bf00              NOP      
000004  bf00              NOP      
;;;365    	} 
;;;366    }
000006  4770              BX       lr
;;;367    
                          ENDP


                          AREA ||i.SignalFlter||, CODE, READONLY, ALIGN=2

                  SignalFlter PROC
;;;373    }
;;;374    float SignalFlter(float x1, float yold, float ti) 
000000  e92d4ff7          PUSH     {r0-r2,r4-r11,lr}
;;;375    {
000004  b088              SUB      sp,sp,#0x20
000006  468a              MOV      r10,r1
000008  4693              MOV      r11,r2
;;;376        float y;
;;;377        y=(x1 - yold)*(0.01 / ti) + yold;
00000a  4650              MOV      r0,r10
00000c  f7fffffe          BL       __aeabi_f2d
000010  e9cd0104          STRD     r0,r1,[sp,#0x10]
000014  4658              MOV      r0,r11
000016  f7fffffe          BL       __aeabi_f2d
00001a  4680              MOV      r8,r0
00001c  4642              MOV      r2,r8
00001e  460b              MOV      r3,r1
000020  480f              LDR      r0,|L9.96|
000022  4910              LDR      r1,|L9.100|
000024  f7fffffe          BL       __aeabi_ddiv
000028  e9cd0100          STRD     r0,r1,[sp,#0]
00002c  4651              MOV      r1,r10
00002e  9808              LDR      r0,[sp,#0x20]
000030  f7fffffe          BL       __aeabi_fsub
000034  4680              MOV      r8,r0
000036  f7fffffe          BL       __aeabi_f2d
00003a  4606              MOV      r6,r0
00003c  e9dd2300          LDRD     r2,r3,[sp,#0]
000040  f7fffffe          BL       __aeabi_dmul
000044  e9cd0102          STRD     r0,r1,[sp,#8]
000048  e9dd2304          LDRD     r2,r3,[sp,#0x10]
00004c  f7fffffe          BL       __aeabi_dadd
000050  4604              MOV      r4,r0
000052  f7fffffe          BL       __aeabi_d2f
000056  9006              STR      r0,[sp,#0x18]
;;;378        return( y );
000058  9806              LDR      r0,[sp,#0x18]
;;;379    }
00005a  b00b              ADD      sp,sp,#0x2c
00005c  e8bd8ff0          POP      {r4-r11,pc}
;;;380    
                          ENDP

                  |L9.96|
                          DCD      0x47ae147b
                  |L9.100|
                          DCD      0x3f847ae1

                          AREA ||i.TrqLim||, CODE, READONLY, ALIGN=2

                  TrqLim PROC
;;;473    //根据发动机转速，查表得出轻载、中载的扭矩限制值，
;;;474    void TrqLim(void)          //扭矩限制计算
000000  b538              PUSH     {r3-r5,lr}
;;;475    {   
;;;476    	static u8  i,inow; 
;;;477    
;;;478    	for(i=0;i<14;i++)
000002  2000              MOVS     r0,#0
000004  4940              LDR      r1,|L10.264|
000006  7008              STRB     r0,[r1,#0]
000008  e01b              B        |L10.66|
                  |L10.10|
;;;479    	{
;;;480    		if(Eng_nAvgFltInt >= TrqlimM[0][i] && Eng_nAvgFltInt < TrqlimM[0][i+1]) //根据发动机转速来判断
00000a  4840              LDR      r0,|L10.268|
00000c  493e              LDR      r1,|L10.264|
00000e  7809              LDRB     r1,[r1,#0]  ; i
000010  f8300011          LDRH     r0,[r0,r1,LSL #1]
000014  493e              LDR      r1,|L10.272|
000016  8809              LDRH     r1,[r1,#0]  ; Eng_nAvgFltInt
000018  4288              CMP      r0,r1
00001a  dc0d              BGT      |L10.56|
00001c  493b              LDR      r1,|L10.268|
00001e  483a              LDR      r0,|L10.264|
000020  7800              LDRB     r0,[r0,#0]  ; i
000022  1c40              ADDS     r0,r0,#1
000024  f8310010          LDRH     r0,[r1,r0,LSL #1]
000028  4939              LDR      r1,|L10.272|
00002a  8809              LDRH     r1,[r1,#0]  ; Eng_nAvgFltInt
00002c  4288              CMP      r0,r1
00002e  dd03              BLE      |L10.56|
;;;481    			inow = i;
000030  4835              LDR      r0,|L10.264|
000032  7800              LDRB     r0,[r0,#0]  ; i
000034  4937              LDR      r1,|L10.276|
000036  7008              STRB     r0,[r1,#0]
                  |L10.56|
000038  4833              LDR      r0,|L10.264|
00003a  7800              LDRB     r0,[r0,#0]            ;478  ; i
00003c  1c40              ADDS     r0,r0,#1              ;478
00003e  4932              LDR      r1,|L10.264|
000040  7008              STRB     r0,[r1,#0]            ;478
                  |L10.66|
000042  4831              LDR      r0,|L10.264|
000044  7800              LDRB     r0,[r0,#0]            ;478  ; i
000046  280e              CMP      r0,#0xe               ;478
000048  dbdf              BLT      |L10.10|
;;;482    	}
;;;483    	TrqlimMid = calu(TrqlimM[0][inow],TrqlimM[0][inow+1],TrqlimM[1][inow],TrqlimM[1][inow+1],Eng_nAvgFltInt);
00004a  4831              LDR      r0,|L10.272|
00004c  8800              LDRH     r0,[r0,#0]  ; Eng_nAvgFltInt
00004e  4c2f              LDR      r4,|L10.268|
000050  341e              ADDS     r4,r4,#0x1e
000052  4d30              LDR      r5,|L10.276|
000054  9000              STR      r0,[sp,#0]
000056  782d              LDRB     r5,[r5,#0]  ; inow
000058  1c6d              ADDS     r5,r5,#1
00005a  f8343015          LDRH     r3,[r4,r5,LSL #1]
00005e  4d2d              LDR      r5,|L10.276|
000060  782d              LDRB     r5,[r5,#0]  ; inow
000062  f8342015          LDRH     r2,[r4,r5,LSL #1]
000066  4d29              LDR      r5,|L10.268|
000068  4c2a              LDR      r4,|L10.276|
00006a  7824              LDRB     r4,[r4,#0]  ; inow
00006c  1c64              ADDS     r4,r4,#1
00006e  f8351014          LDRH     r1,[r5,r4,LSL #1]
000072  462c              MOV      r4,r5
000074  4d27              LDR      r5,|L10.276|
000076  782d              LDRB     r5,[r5,#0]  ; inow
000078  f8340015          LDRH     r0,[r4,r5,LSL #1]
00007c  f7fffffe          BL       calu
000080  4925              LDR      r1,|L10.280|
000082  6008              STR      r0,[r1,#0]  ; TrqlimMid
;;;484           //限制值  中载
;;;485    	for(i=0;i<14;i++)
000084  2000              MOVS     r0,#0
000086  4920              LDR      r1,|L10.264|
000088  7008              STRB     r0,[r1,#0]
00008a  e01b              B        |L10.196|
                  |L10.140|
;;;486    	{
;;;487    		if(Eng_nAvgFltInt >= TrqlimL[0][i] && Eng_nAvgFltInt < TrqlimL[0][i+1])
00008c  4823              LDR      r0,|L10.284|
00008e  491e              LDR      r1,|L10.264|
000090  7809              LDRB     r1,[r1,#0]  ; i
000092  f8300011          LDRH     r0,[r0,r1,LSL #1]
000096  491e              LDR      r1,|L10.272|
000098  8809              LDRH     r1,[r1,#0]  ; Eng_nAvgFltInt
00009a  4288              CMP      r0,r1
00009c  dc0d              BGT      |L10.186|
00009e  491f              LDR      r1,|L10.284|
0000a0  4819              LDR      r0,|L10.264|
0000a2  7800              LDRB     r0,[r0,#0]  ; i
0000a4  1c40              ADDS     r0,r0,#1
0000a6  f8310010          LDRH     r0,[r1,r0,LSL #1]
0000aa  4919              LDR      r1,|L10.272|
0000ac  8809              LDRH     r1,[r1,#0]  ; Eng_nAvgFltInt
0000ae  4288              CMP      r0,r1
0000b0  dd03              BLE      |L10.186|
;;;488    			inow = i;
0000b2  4815              LDR      r0,|L10.264|
0000b4  7800              LDRB     r0,[r0,#0]  ; i
0000b6  4917              LDR      r1,|L10.276|
0000b8  7008              STRB     r0,[r1,#0]
                  |L10.186|
0000ba  4813              LDR      r0,|L10.264|
0000bc  7800              LDRB     r0,[r0,#0]            ;485  ; i
0000be  1c40              ADDS     r0,r0,#1              ;485
0000c0  4911              LDR      r1,|L10.264|
0000c2  7008              STRB     r0,[r1,#0]            ;485
                  |L10.196|
0000c4  4810              LDR      r0,|L10.264|
0000c6  7800              LDRB     r0,[r0,#0]            ;485  ; i
0000c8  280e              CMP      r0,#0xe               ;485
0000ca  dbdf              BLT      |L10.140|
;;;489    	}//轻载 如果是 225   ECU 会减掉 125 ，意思是 ECU 只在  125 - 225 之间浮动运行
;;;490    	TrqlimLow = calu(TrqlimL[0][inow],TrqlimL[0][inow+1],TrqlimL[1][inow],TrqlimL[1][inow+1],Eng_nAvgFltInt);  	
0000cc  4810              LDR      r0,|L10.272|
0000ce  8800              LDRH     r0,[r0,#0]  ; Eng_nAvgFltInt
0000d0  4c12              LDR      r4,|L10.284|
0000d2  341e              ADDS     r4,r4,#0x1e
0000d4  4d0f              LDR      r5,|L10.276|
0000d6  9000              STR      r0,[sp,#0]
0000d8  782d              LDRB     r5,[r5,#0]  ; inow
0000da  1c6d              ADDS     r5,r5,#1
0000dc  f8343015          LDRH     r3,[r4,r5,LSL #1]
0000e0  4d0c              LDR      r5,|L10.276|
0000e2  782d              LDRB     r5,[r5,#0]  ; inow
0000e4  f8342015          LDRH     r2,[r4,r5,LSL #1]
0000e8  4d0c              LDR      r5,|L10.284|
0000ea  4c0a              LDR      r4,|L10.276|
0000ec  7824              LDRB     r4,[r4,#0]  ; inow
0000ee  1c64              ADDS     r4,r4,#1
0000f0  f8351014          LDRH     r1,[r5,r4,LSL #1]
0000f4  462c              MOV      r4,r5
0000f6  4d07              LDR      r5,|L10.276|
0000f8  782d              LDRB     r5,[r5,#0]  ; inow
0000fa  f8340015          LDRH     r0,[r4,r5,LSL #1]
0000fe  f7fffffe          BL       calu
000102  4907              LDR      r1,|L10.288|
000104  6008              STR      r0,[r1,#0]  ; TrqlimLow
;;;491    }
000106  bd38              POP      {r3-r5,pc}
;;;492    
                          ENDP

                  |L10.264|
                          DCD      |symbol_number.45|
                  |L10.268|
                          DCD      TrqlimM
                  |L10.272|
                          DCD      Eng_nAvgFltInt
                  |L10.276|
                          DCD      inow
                  |L10.280|
                          DCD      TrqlimMid
                  |L10.284|
                          DCD      TrqlimL
                  |L10.288|
                          DCD      TrqlimLow

                          AREA ||i.UpdateTxDataAMT||, CODE, READONLY, ALIGN=2

                  UpdateTxDataAMT PROC
;;;162    //按照低的来限制
;;;163    void UpdateTxDataAMT(void)
000000  b510              PUSH     {r4,lr}
;;;164    {
;;;165    	//todo：详细讲讲这个代码
;;;166        if(Acc_st==1)     //稳油的会算出扭矩限制，查表一个扭矩限制，最终要取小输送给ECU
000002  4830              LDR      r0,|L11.196|
000004  7981              LDRB     r1,[r0,#6]  ; RCVData2
000006  79c0              LDRB     r0,[r0,#7]  ; RCVData2
000008  eb012000          ADD      r0,r1,r0,LSL #8
00000c  2801              CMP      r0,#1
00000e  d103              BNE      |L11.24|
;;;167    		trq[3] = 225;
000010  20e1              MOVS     r0,#0xe1
000012  492d              LDR      r1,|L11.200|
000014  70c8              STRB     r0,[r1,#3]
000016  e04b              B        |L11.176|
                  |L11.24|
;;;168        else
;;;169    																			{
;;;170             if(DRVDEM_TRQFLT_ENABLE)    //始终是使能的
;;;171             {
;;;172                if(Load_stCurr == Midload || Load_stCurr == Lowload)//中载或者轻载
000018  482c              LDR      r0,|L11.204|
00001a  7800              LDRB     r0,[r0,#0]  ; Load_stCurr
00001c  2802              CMP      r0,#2
00001e  d003              BEQ      |L11.40|
000020  482a              LDR      r0,|L11.204|
000022  7800              LDRB     r0,[r0,#0]  ; Load_stCurr
000024  2801              CMP      r0,#1
000026  d107              BNE      |L11.56|
                  |L11.40|
;;;173                {
;;;174                   TrqDrvFlt=(u8)CoEng_rDrvLoadFlt + 125; //需求扭矩
000028  4829              LDR      r0,|L11.208|
00002a  6800              LDR      r0,[r0,#0]  ; CoEng_rDrvLoadFlt
00002c  f7fffffe          BL       __aeabi_f2uiz
000030  307d              ADDS     r0,r0,#0x7d
000032  4928              LDR      r1,|L11.212|
000034  7008              STRB     r0,[r1,#0]
000036  e002              B        |L11.62|
                  |L11.56|
;;;175                } 
;;;176    			else TrqDrvFlt = 225;
000038  20e1              MOVS     r0,#0xe1
00003a  4926              LDR      r1,|L11.212|
00003c  7008              STRB     r0,[r1,#0]
                  |L11.62|
;;;177             } 
;;;178    		 else 
;;;179    			 TrqDrvFlt = 225;  		//此举没有任何意义，永远也执行不到。
;;;180             if(TrqLoad < trqmax)  		//限制小于最大值。
00003e  4826              LDR      r0,|L11.216|
000040  8800              LDRH     r0,[r0,#0]  ; trqmax
000042  f7fffffe          BL       __aeabi_ui2f
000046  4604              MOV      r4,r0
000048  4824              LDR      r0,|L11.220|
00004a  6801              LDR      r1,[r0,#0]  ; TrqLoad
00004c  4620              MOV      r0,r4
00004e  f7fffffe          BL       __aeabi_cfrcmple
000052  d216              BCS      |L11.130|
;;;181             {
;;;182                if(TrqLoad < TrqDrvFlt) 
000054  481f              LDR      r0,|L11.212|
000056  7800              LDRB     r0,[r0,#0]  ; TrqDrvFlt
000058  f7fffffe          BL       __aeabi_ui2f
00005c  4604              MOV      r4,r0
00005e  481f              LDR      r0,|L11.220|
000060  6801              LDR      r1,[r0,#0]  ; TrqLoad
000062  4620              MOV      r0,r4
000064  f7fffffe          BL       __aeabi_cfrcmple
000068  d206              BCS      |L11.120|
;;;183    				trq[3] = TrqLoad;
00006a  481c              LDR      r0,|L11.220|
00006c  6800              LDR      r0,[r0,#0]  ; TrqLoad
00006e  f7fffffe          BL       __aeabi_f2uiz
000072  4915              LDR      r1,|L11.200|
000074  70c8              STRB     r0,[r1,#3]
000076  e013              B        |L11.160|
                  |L11.120|
;;;184                else 
;;;185    				trq[3] = TrqDrvFlt;
000078  4816              LDR      r0,|L11.212|
00007a  7800              LDRB     r0,[r0,#0]  ; TrqDrvFlt
00007c  4912              LDR      r1,|L11.200|
00007e  70c8              STRB     r0,[r1,#3]
000080  e00e              B        |L11.160|
                  |L11.130|
;;;186             }
;;;187             else
;;;188             {
;;;189                if(trqmax < TrqDrvFlt) 
000082  4815              LDR      r0,|L11.216|
000084  8800              LDRH     r0,[r0,#0]  ; trqmax
000086  4913              LDR      r1,|L11.212|
000088  7809              LDRB     r1,[r1,#0]  ; TrqDrvFlt
00008a  4288              CMP      r0,r1
00008c  da04              BGE      |L11.152|
;;;190    				trq[3] = trqmax;
00008e  4812              LDR      r0,|L11.216|
000090  7800              LDRB     r0,[r0,#0]  ; trqmax
000092  490d              LDR      r1,|L11.200|
000094  70c8              STRB     r0,[r1,#3]
000096  e003              B        |L11.160|
                  |L11.152|
;;;191                else 
;;;192    				trq[3] = TrqDrvFlt;
000098  480e              LDR      r0,|L11.212|
00009a  7800              LDRB     r0,[r0,#0]  ; TrqDrvFlt
00009c  490a              LDR      r1,|L11.200|
00009e  70c8              STRB     r0,[r1,#3]
                  |L11.160|
;;;193             }
;;;194    		 trq[0] = 35;
0000a0  2023              MOVS     r0,#0x23
0000a2  4909              LDR      r1,|L11.200|
0000a4  7008              STRB     r0,[r1,#0]
;;;195    		 trq[1] = 0xFF;
0000a6  20ff              MOVS     r0,#0xff
0000a8  7048              STRB     r0,[r1,#1]
;;;196    		 trq[2] = 0xFF;
0000aa  7088              STRB     r0,[r1,#2]
;;;197    		 trq[3] = 205;
0000ac  20cd              MOVS     r0,#0xcd
0000ae  70c8              STRB     r0,[r1,#3]
                  |L11.176|
;;;198        }
;;;199    	 trq[0] = 35;
0000b0  2023              MOVS     r0,#0x23
0000b2  4905              LDR      r1,|L11.200|
0000b4  7008              STRB     r0,[r1,#0]
;;;200    	 trq[1] = 0xFF;
0000b6  20ff              MOVS     r0,#0xff
0000b8  7048              STRB     r0,[r1,#1]
;;;201    	 trq[2] = 0xFF;
0000ba  7088              STRB     r0,[r1,#2]
;;;202    	 trq[3] = 205;
0000bc  20cd              MOVS     r0,#0xcd
0000be  70c8              STRB     r0,[r1,#3]
;;;203    }
0000c0  bd10              POP      {r4,pc}
;;;204    
                          ENDP

0000c2  0000              DCW      0x0000
                  |L11.196|
                          DCD      RCVData2
                  |L11.200|
                          DCD      trq
                  |L11.204|
                          DCD      Load_stCurr
                  |L11.208|
                          DCD      CoEng_rDrvLoadFlt
                  |L11.212|
                          DCD      TrqDrvFlt
                  |L11.216|
                          DCD      trqmax
                  |L11.220|
                          DCD      TrqLoad

                          AREA ||i.calu||, CODE, READONLY, ALIGN=1

                  calu PROC
;;;367    
;;;368    long int calu(int x1, int x2, int y1, int y2, int x)
000000  b5f0              PUSH     {r4-r7,lr}
;;;369    {
000002  4604              MOV      r4,r0
000004  9d05              LDR      r5,[sp,#0x14]
;;;370    	long int y;
;;;371    	y = ((long)(y2-y1)*x+(long)y1*x2-(long)x1*y2)/(x2-x1);
000006  1a9e              SUBS     r6,r3,r2
000008  436e              MULS     r6,r5,r6
00000a  fb026601          MLA      r6,r2,r1,r6
00000e  fb046613          MLS      r6,r4,r3,r6
000012  1b0f              SUBS     r7,r1,r4
000014  fb96f0f7          SDIV     r0,r6,r7
;;;372    	return(y);
;;;373    }
000018  bdf0              POP      {r4-r7,pc}
;;;374    float SignalFlter(float x1, float yold, float ti) 
                          ENDP


                          AREA ||.bss||, DATA, NOINIT, ALIGN=2

                  RCVData
                          %        16
                  RCVData0
                          %        16
                  RCVData1
                          %        16
                  RCVData2
                          %        16
                  RCVData3
                          %        16
                  RCVData4
                          %        16
                  RCVData5
                          %        16
                  RCVData6
                          %        16
                  CoEng_r100msLoad
                          %        800
                  Eng_nAvg100ms
                          %        800
                  CoEng_rtrqInr100ms
                          %        200
                  CoEng_rDrvLoad100ms
                          %        100
                  Accped_r100ms
                          %        120

                          AREA ||.constdata||, DATA, READONLY, ALIGN=0

                  DataLenth
000000  00                DCB      0x00

                          AREA ||.data||, DATA, ALIGN=2

                  SystemTime250us
000000  0000              DCB      0x00,0x00
                  SystemTime1ms
000002  0000              DCB      0x00,0x00
                  SystemTime10ms
000004  0000              DCB      0x00,0x00
                  SystemTime50ms
000006  0000              DCB      0x00,0x00
                  SystemTime100ms
000008  0000              DCB      0x00,0x00
                  SystemTime500ms
00000a  0000              DCB      0x00,0x00
                  SystemTime1s
00000c  0000              DCB      0x00,0x00
                  SystemTime3s
00000e  0000              DCB      0x00,0x00
                  B_TimeOut
000010  00                DCB      0x00
                  CL_stOutflag
000011  00                DCB      0x00
                  app1
000012  00                DCB      0x00
                  app2
000013  00                DCB      0x00
                  app3
000014  00                DCB      0x00
                  numapp
000015  00                DCB      0x00
                  appold1
000016  00                DCB      0x00
                  appold2
000017  00                DCB      0x00
                  appold3
000018  00                DCB      0x00
                  appold4
000019  00                DCB      0x00
                  appold5
00001a  00                DCB      0x00
                  appold6
00001b  00                DCB      0x00
                  CANerr_flg
00001c  00                DCB      0x00
                  CANerr_state
00001d  00                DCB      0x00
                  CANr1
00001e  00                DCB      0x00
                  CANr2
00001f  00                DCB      0x00
                  CANr3
000020  00                DCB      0x00
                  CANr4
000021  00                DCB      0x00
                  CANr5
000022  00                DCB      0x00
                  CANr6
000023  00                DCB      0x00
                  CANr7
000024  00000000          DCB      0x00,0x00,0x00,0x00
                  App_rFreeze
                          DCD      0x00000000
                  App_rquit
                          DCD      0x00000000
                  Moffrm_trqMax
                          DCD      0x00000000
                  EngPrt_trqLim
                          DCD      0x00000000
                  CoEng_TrqFrc
                          DCD      0x00000000
                  CoEng_trq
                          DCD      0x00000000
                  EngPrt_trqNet
                          DCD      0x00000000
                  trqmax
000044  0000              DCB      0x00,0x00
                  Load_stCurr
000046  00                DCB      0x00
                  Load_stTarget
000047  00                DCB      0x00
                  iout
000048  00                DCB      0x00
                  jout
000049  000000            DCB      0x00,0x00,0x00
                  App_dev
                          DCD      0x00000000
                  rdev
000050  00                DCB      0x00
                  mrdev
000051  00                DCB      0x00
                  Curr_trq
000052  00                DCB      0x00
                  CAN7flag
000053  00                DCB      0x00
                  CAN17flag
000054  00000000          DCB      0x00,0x00,0x00,0x00
                  numCAN
                          DCD      0x00000000
                  flagCAN
                          DCD      0x00000000
                  trqmaxfloat
                          DCD      0x00000000
                  tx_send1
                          %        8
                  trq
                          %        8
                  fReceivedData
000074  00                DCB      0x00
                  fReceivedData17
000075  00                DCB      0x00
                  fReceivedData7
000076  00                DCB      0x00
                  fCAN7OK
000077  00                DCB      0x00
                  fCAN17OK
000078  00                DCB      0x00
                  fCANBUSOK
000079  00                DCB      0x00
                  CANBUSNUM
00007a  00                DCB      0x00
                  CANbusClr
00007b  00                DCB      0x00
                  Eng_nAvgSum
                          DCD      0x00000000
                  Coeng_rtrqInrSum
                          DCD      0x00000000
                  Coeng_rDrvLoadSum
                          DCD      0x00000000
                  Eng_nAvg20
                          DCD      0x00000000
                  Coeng_trqInrCurr
                          DCD      0x00000000
                  CoEng_rtrqInrAvg
                          DCD      0x00000000
                  CoEng_rDrvLoad
000094  00000000          DCB      0x00,0x00,0x00,0x00
                  Accped_rSum
                          DCD      0x00000000
                  Accped_r3s
                          DCD      0x00000000
                  TrqlimLow
                          DCD      0x00000000
                  TrqlimMid
                          DCD      0x00000000
                  TrqLoad
                          DCD      0x00000000
                  CoEng_trqDrv10Load
                          DCD      0x00000000
                  fCanOK
0000b0  00                DCB      0x00
                  n
0000b1  00                DCB      0x00
                  nop
0000b2  00                DCB      0x00
                  ||swt||
0000b3  00                DCB      0x00
                  swt1
0000b4  00000000          DCB      0x00,0x00,0x00,0x00
                  Eng_nAvg
                          DCD      0x00000000
                  Eng_nAvgFlt
                          DCD      0x00000000
                  Eng_nAvgFltOld
                          DCD      0x00000000
                  Accped_r
                          DCD      0x00000000
                  Accped_rFlt
                          DCD      0x00000000
                  Accped_rFltOld
                          DCD      0x00000000
                  RateSpeed
                          DCD      0x00000000
                  CoEng_rCurLoad
                          DCD      0x00000000
                  CoEng_rAvg20Load
                          DCD      0x00000000
                  CoEng_rAvg3Load
                          DCD      0x00000000
                  CoEng_rDrv10Load
                          DCD      0x00000000
                  CoEng_rDrvLoadFlt
                          DCD      0x00000000
                  CoEng_rDrvLoadFltOld
                          DCD      0x00000000
                  CoEng_rSumLoad
                          DCD      0x00000000
                  CoEng_rSum3Load
                          DCD      0x00000000
                  Eng_nAvgplus
0000f4  0000              DCB      0x00,0x00
                  Eng_nAvgFltInt
0000f6  0000              DCB      0x00,0x00
                  CoEng_trqint
                          DCD      0x00000000
                  Accped_rint
                          DCD      0x00000000
                  Accped_rFltint
                          DCD      0x00000000
                  Num_ConstLim
000104  00                DCB      0x00
                  Num_LowLoad
000105  00                DCB      0x00
                  Num_MidLoad
000106  00                DCB      0x00
                  TrqDrvFlt
000107  00                DCB      0x00
                  CanErrCnt
000108  0096              DCW      0x0096
                  |symbol_number.41|
00010a  0096              DCW      0x0096
                  |symbol_number.42|
00010c  0096              DCW      0x0096
                  i
00010e  00                DCB      0x00
                  j
00010f  00                DCB      0x00
                  |symbol_number.45|
000110  00                DCB      0x00
                  inow
000111  00                DCB      0x00
                  TimerAPPCnt0
000112  0000              DCB      0x00,0x00
                  APP_T0
000114  00                DCB      0x00

;*** Start embedded assembler ***

#line 1 "..\\OBD\\saveFuel.c"
	AREA ||.rev16_text||, CODE
	THUMB
	EXPORT |__asm___10_saveFuel_c_ec8bcc0f____REV16|
#line 465 "D:\\Keil_v5\\ARM\\PACK\\ARM\\CMSIS\\5.2.0\\CMSIS\\Include\\cmsis_armcc.h"
|__asm___10_saveFuel_c_ec8bcc0f____REV16| PROC
#line 466

 rev16 r0, r0
 bx lr
	ENDP
	AREA ||.revsh_text||, CODE
	THUMB
	EXPORT |__asm___10_saveFuel_c_ec8bcc0f____REVSH|
#line 480
|__asm___10_saveFuel_c_ec8bcc0f____REVSH| PROC
#line 481

 revsh r0, r0
 bx lr
	ENDP
	AREA ||.rrx_text||, CODE
	THUMB
	EXPORT |__asm___10_saveFuel_c_ec8bcc0f____RRX|
#line 667
|__asm___10_saveFuel_c_ec8bcc0f____RRX| PROC
#line 668

 rrx r0, r0
 bx lr
	ENDP

;*** End   embedded assembler ***
